(dp0
S'h5-NsPUzUPd2cS4DEEIr4g'
p1
I4868
sS'EILlr344UjXMXJNoGUfmjA'
p2
I4869
sS'9FOrsYpBwOIHvTzqBpe0Qw'
p3
I1
sS'Z'
p4
I1935
sS'BUB_t_Rvzs1yPEzZipkWjw'
p5
I2
sS'9xwQiocYclFSzLfunNoAxg'
p6
I4875
sS'GHoG4X4FY8D8L563zzPX5w'
p7
I3
sS'RR29ux2BfnLa8e_3CLX5CA'
p8
I4876
sS'6NfqK0vMXFbIJ5V6ssakgQ'
p9
I4
sS'YwaKGmRNnSa3R3N4Hf9jLw'
p10
I5
sS'BgZwJBhVWKq1Urs4rKBdiA'
p11
I6
sS'oAKrvdtdHsDzV2a0FRut4A'
p12
I4908
sS'PZlToKr0F8phjppcoDuDkA'
p13
I8
sS'nTMDc79EKMPa8lK79qg88g'
p14
I10
sS'GRsPBPJ4Ckx4mpm2UbzWsg'
p15
I3729
sS'ERFbDSU0bg-dY6Pzgjl_Rg'
p16
I12
sS'0JgjdJUgsMxh8U9-RWSomw'
p17
I13
sS'4EjzfFA-0EUqkaNHKYGG0A'
p18
I14
sS'skbZO4vHHHA-ejA_BUwKjg'
p19
I15
sS'jp4X9H56zjjLacnpHz02Iw'
p20
I846
sS'65yB0ydGXOZ_-T6J_GbKfw'
p21
I17
sS'RQlnSCjuqMnhR3Qk6j4KoA'
p22
I18
sS'ICwMfseYkrB0ZEK8tDUOHw'
p23
I19
sS'5F_ASUSCHFf3YotkKioZ5w'
p24
I20
sS'jiYr5y9M5oj5cKT4o_Bkvw'
p25
I21
sS'Qv_sHg9kBNE3PB-HFBrgTw'
p26
I22
sS'p5cl1onC4dMDcp3EF30EUA'
p27
I23
sS'PlXQJMhZzXwAoNnp99YDUg'
p28
I24
sS'K-tV497IGYVLrMSmLZzU7A'
p29
I25
sS'-Nfj4XjcHOZqQ88pDJIs4Q'
p30
I26
sS'ia9WOAZ6eXMbNgr4wvmJ1g'
p31
I27
sS'P6_r7O8zEjnxTSBkS6WYfg'
p32
I28
sS'yh8_9Ix1wp9dekvyOZbilQ'
p33
I29
sS'RJrGgtBXkpX2oEHM4hSqXg'
p34
I30
sS'q-dMiIe-eRGY_DUkXvmXMA'
p35
I31
sS'G3h8pIclwUbuu3itJqF7ug'
p36
I32
sS'QJsvTbq7pryyBDrNAyoO4g'
p37
I33
sS'GcdYgbaF75vj7RO6EZhPOQ'
p38
I2550
sS'aCLc72gpsf8zbdayft5vtw'
p39
I36
sS'Ardg5LcOx_ryZYvXIXvr9g'
p40
I37
sS'Mere0_uEOiC6yGPasep9HQ'
p41
I38
sS'ZiO2Wr41kZ4Vz64aheBFPQ'
p42
I39
sS'Z-bTLSYSJL1qIPEusyHQUQ'
p43
I40
sS'a7K8yNKMI_-BnUgIOepLaA'
p44
I4948
sS'IL4O2SIcumu1un5UkgB3FQ'
p45
I41
sS'kjeX2RXvW7RhBbD2QLd5jA'
p46
I42
sS'rm92EiaA7h5lLbAK5dJKcw'
p47
I43
sS'vFZUDAxiFZlEQgkV3VSsBA'
p48
I1065
sS'wRUp1JMtbtOxgMQkVoba3w'
p49
I45
sS'hVSsN5EGe2-h2uW1v_VUdA'
p50
I3400
sS'H4BiIX0gU-Fc2S487g7z1Q'
p51
I48
sS'wABHp4fGUC-0acRKhmQO2A'
p52
I49
sS'3Xxt0y4dOg-ewnudA8eWsw'
p53
I50
sS'itXMelaTleEjLIFWCJtnwg'
p54
I51
sS'83o_aztUMOgK3Os-H9LVEQ'
p55
I1712
sS'0BypTx7HWe0beJHHXMr9Bw'
p56
I3004
sS'VzlX5LJ7__pl6AaBWBiw9w'
p57
I55
sS'TVBI1LYXTlWeHCtqBSt6QA'
p58
I56
sS'Oz6DTbeD6m3z5LmnDdZdXw'
p59
I57
sS'H183Fg4ku9mIQsmAa0fsOQ'
p60
I58
sS'AQxmbuDiToMv2WYtq4Mfdw'
p61
I60
sS'y_jl-bErj1mnb4KF04F74Q'
p62
I61
sS'cAl0Xqh_PFiMJl10ZlcDIg'
p63
I62
sS'USZx-55MA2-lG2hBu6PWJA'
p64
I4422
sS'ziL8chrxFpGtA0oFQNUrwQ'
p65
I64
sS'5_gq8OFWxFD0G0CKkTmFLw'
p66
I65
sS'zONGOlUlk65vMtuS_eE4jg'
p67
I66
sS'KM_ue1c95XeKgrd-MeGS0A'
p68
I3402
sS'fLKbns1B_8AnbRqHFloALw'
p69
I68
sS'ZXNwO2bY3QTYP0k_5bhG1A'
p70
I69
sS'd_SCA4qvpcVXorlwe4ZdGw'
p71
I70
sS'A3gEkJ0lvC1-37KPMNTehg'
p72
I71
sS'rQRljHQtNSdZlaEBqkUY5w'
p73
I72
sS'GX_UaOZNnS2iekRGDCExkA'
p74
I73
sS'Um5bfs5DH6eizgjH3xZsvg'
p75
I74
sS'tgrs5VQ6thhouiEtMU-N_w'
p76
I75
sS'YrlNGnrofZHseVYxrLrvJA'
p77
I77
sS'NHY4mU-Bz16YEsnAeu8pwA'
p78
I78
sS'9leRUv4_XFUuGyevKJKA-Q'
p79
I79
sS'IJJETLhfEVvuUF_UfA7Hug'
p80
I80
sS'nlQGyti20c07rpTSYYoNZQ'
p81
I81
sS'jH4i-q5cyHdLKDTJER0oew'
p82
I4550
sS'yV4dun0_ALnZ6LQIsrCu_Q'
p83
I3346
sS'_pIG1_s6Bzymn1zeyLjBHQ'
p84
I83
sS'3nDUQBjKyVor5wV0reJChg'
p85
I84
sS'vNkhTRxSnpLUYi0zRSt30Q'
p86
I85
sS'JSbptCz_mzQ0sQJN94wcwA'
p87
I86
sS'mzL0zHFGyd9866OUljq49g'
p88
I87
sS'ENtSjbekFHjltp2TFkstHg'
p89
I88
sS'PdpWp_j67Nfr_oQF-4yKUw'
p90
I90
sS'nfzdme1_TjrCHkQu3wV3lA'
p91
I91
sS'dArzYnlZh0gBLjA6YkJeoQ'
p92
I92
sS'iwQsBQDrpQirBmmCxmzLeQ'
p93
I93
sS'qwONwL783a0hvPQl2TVWjg'
p94
I94
sS'5AJRqMc0y4yYW-YEz3FEuQ'
p95
I3948
sS'0G-bcpdR48tfZy6koGUiTQ'
p96
I95
sS'GMxzcQwOAbCKnoUVm5fwpA'
p97
I96
sS'WIhrdYTVpkVmkW3Ltr-fVA'
p98
I97
sS'G'
p99
I1718
sS'PjGFb-QDKq8fd167OjTFbA'
p100
I99
sS'HqMWEEsYIXoFhdDIX1NtrA'
p101
I100
sS'OsuVFZhf40dpNz-rFYCH7g'
p102
I102
sS'I0AsEXEWAbcq4uhYcgkXDQ'
p103
I103
sS'7edHxOKYn5UwGXafHGRlAw'
p104
I105
sS'NV3pDOP1kUDd3MY_s5kJ1A'
p105
I106
sS'ZCgJbuBhHiGZd9yZ_kq6qg'
p106
I4300
sS'xuFdjMHgu1qd-itoNqaRKA'
p107
I2637
sS'o2Or6xqxeWaE46tdzK0UGg'
p108
I108
sS'Fv0e9RIV9jw5TX3ctA1WbA'
p109
I109
sS'L4CXCKMj2NDsr8fd2_XmkA'
p110
I4430
sS'F3swTsmAQ5u0vLZFKtkG7A'
p111
I110
sS'71xrAG-ULA2Or7mr4Tpm-Q'
p112
I111
sS'nXMMoDzXRByQiWH9cf-FAQ'
p113
I112
sS'wsc5Aqmsw2imqWlWVJOz9g'
p114
I113
sS'BPZEAoU0sB6CFGusTErUuA'
p115
I4756
sS'IIwfcmU08iU_zLYEF0Qtjg'
p116
I114
sS'cyJsilA4llNkwFYOCLSIzw'
p117
I5125
sS'9UaQnSBUgItgJy-yZKK_CA'
p118
I115
sS'jipgimnSNp3qdK2dKUQvBg'
p119
I116
sS't5wQJpxD_8tGusq98hIW1w'
p120
I117
sS'g5qD10shooDJEPjt6miMrw'
p121
I118
sS'u8WIVYVQxiAFJWLdjJNkIQ'
p122
I119
sS'kxGmX1lBXJAv-4mI_QduWg'
p123
I120
sS'Y1T7sd4TKOe4utqV5hFdMQ'
p124
I121
sS'-0SqALqeWmInVftG_iHcHg'
p125
I122
sS'eSU_HjKOA3Ppt8oS07oYkw'
p126
I123
sS'Af33NzmZ2TGpwEKFxUlrlQ'
p127
I124
sS'EPK4_bIsyVlrlsLH3RClEQ'
p128
I4305
sS'VnD9lZjizpOcioIJlTqQpQ'
p129
I126
sS'S0mlhV4mugOh4j7l4ixyKQ'
p130
I127
sS'3RPORizfUAhI9HS-Nd7RJA'
p131
I129
sS'uP8qLiZr5zH_5ziDL37S5A'
p132
I130
sS'pOsSRzm0ZOXE9FcJ5pWxYg'
p133
I4889
sS'q9xZ_o95MTmBmLLPnZyBwQ'
p134
I132
sS'eiiXoxbl2nzTy3VTsOd-Qw'
p135
I133
sS'xrnWY-KHx8O4Gh01JIQ7PA'
p136
I134
sS'k'
p137
I135
sS'CFxgyVEQxmnfpg3JvK2DnQ'
p138
I136
sS'pou3BbKsIozfH50rxmnMew'
p139
I137
sS'P4R6McBpxJWw9UHq09-GXw'
p140
I138
sS'0FyfxrAMHm7AlrAkAXZQ9Q'
p141
I139
sS'pnrG47iwW26dDyHCwEr8UQ'
p142
I140
sS'N'
p143
I3384
sS'PZR-d99E1nkvI5cHFmoBQA'
p144
I141
sS'pvmvgoVjlQf28Ywz3NuD_A'
p145
I142
sS'-lh59ko3dxChBSZ9U7LfUw'
p146
I143
sS'addFMW60hnUvayu7ynh_xg'
p147
I144
sS'3PaNIWP2uFZBcayFa1yUkQ'
p148
I145
sS'9OR0X4T6JjvzLTW6-XZq8g'
p149
I146
sS'RRtMl0kS2ntfoxcQPJcmZA'
p150
I147
sS'mdulmKB-Sq3dAdZvlqnqng'
p151
I148
sS'6OpU93by-nsgw_qCFaOFzg'
p152
I149
sS'FVbtQgcCmWmQ-D6IR5BfZg'
p153
I4447
sS'XCy4Kf8FYhqGefrWm9_i2w'
p154
I150
sS'bqJNDwrpF-vULjAVAh_LyQ'
p155
I3967
sS'ZAfQEyVZ9yerd7lgRKlGkQ'
p156
I152
sS'gK9q-OTSYdllXTkZ2NIQfA'
p157
I153
sS'TdYKJgSgY2GF_YJnwsi5yQ'
p158
I154
sS'5yGgNgkkNvsv6dYiA_whFw'
p159
I155
sS'YPuefjfa8t8rI0Cu2D3zJQ'
p160
I3418
sS'4ZQq0ozRs-gXSz1z55iIDw'
p161
I157
sS'dusl6MaLSfYbE83_iVO2KQ'
p162
I159
sS'RCZ5M9o2-fxgFuurpmEs3w'
p163
I161
sS'JnGtgOPpkjyWOvWM0SYEXg'
p164
I162
sS'0KjqHIouprEuBr_8A9BJ_Q'
p165
I163
sS'v0_o_afxl1K-46G1yYDEvw'
p166
I164
sS'9cZhf2e7TVQ9S5PC9itvzw'
p167
I165
sS'wat2TtMMeJZN5YFavnbgmg'
p168
I166
sS'I2qJvA0tbGdZJ3XrwzwfzA'
p169
I167
sS'UsXqCXRZwSCSw0AT7y1uBg'
p170
I168
sS'w8q1hum7FsGb6hb9T_2j2g'
p171
I169
sS'oVfnZ8K2HISGg40-CJ37GQ'
p172
I170
sS'LPTq2-fZ9_TsG5o8lAWCGg'
p173
I171
sS'o1_sfJ71nrq5QrF00v3Icw'
p174
I172
sS'iZeT4iDRLtlARLoX3R-q0g'
p175
I173
sS'HXOfPXPMvdXNpQ_l0RRjKw'
p176
I174
sS'Iz8EB6wU7guig5UvEV82YQ'
p177
I2573
sS'vKFLk3IgD8_UX-Ryh4wtTw'
p178
I177
sS'wVKVTvBzGZSJFQaMOZVaXQ'
p179
I178
sS'12y11s61_VNGVQcyH50lxw'
p180
I4905
sS'RSSq-gNzbSD_yWpdtxdMQQ'
p181
I179
sS'Hi10sGSZNxQH3NLyWSZ1oA'
p182
I180
sS'YbZg36FoMgkKcTEPae5siA'
p183
I181
sS'IcQJ9Ewki9Bu0cR-D__pXg'
p184
I4726
sS'h'
p185
I4581
sS'PS80V0SCQiTtyt_hVuIsyA'
p186
I184
sS'i'
p187
I4835
sS'63rsfkJ6ptD9jU_Rf96iBg'
p188
I186
sS'C1kTSvNdJH_S2bBhitr6ZA'
p189
I187
sS'mR2P6XpEdbp0EjNsic721Q'
p190
I188
sS'M0mONsg1ZJIKA30ad1qE1w'
p191
I189
sS'tzG3L3w6xoVCosM_L3T4ow'
p192
I190
sS'eL8VdX4tyDr5zHWSahbtuQ'
p193
I191
sS'fiAIkO371It7iR-BdOHPGQ'
p194
I192
sS'v9jUsPYosx6XeRNbNYFG6w'
p195
I193
sS'9VJa4yxtnLct0pN_1RcD_w'
p196
I4318
sS'xKD6xH0ga9KsMXDIwz2MCw'
p197
I195
sS'J6jxfCx8p6VSOV5QvtH7Pw'
p198
I196
sS'-s48ZKSA31DFNcgJLChhQQ'
p199
I1225
sS'RYCs_CBpZKY4_aKfbhZM3g'
p200
I198
sS'I6YARR1VloAua-buFULo1Q'
p201
I201
sS'To7EBxWC-Yz011V2-tdTvA'
p202
I202
sS'iNIxjH-qoi0DW-0M2ML2DA'
p203
I203
sS'dEk7mXM4npuDPmxrwPcEgQ'
p204
I204
sS'-dw8f7FLaUmWR7bfJ_Yf0w'
p205
I205
sS'5TRoGYgiLszT5R4Py1iFDg'
p206
I206
sS'hLZhIcq9qupYTeW5FHInEA'
p207
I3501
sS'2ky6A9YKsyLs2saA3gjTIA'
p208
I208
sS's2c7-9bqMhjA8POuKIHm8g'
p209
I2714
sS's4NgvdIfBH3UQdccWCyARg'
p210
I210
sS'3iocNPlPThAG2ZaNtUo4TQ'
p211
I211
sS'jgi0iam1b2XEqYAQBP7NRQ'
p212
I212
sS'59WyVbDKkaWftg3u8DnjBQ'
p213
I3913
sS'rObBiN_JQ98QmVSubK6IWA'
p214
I213
sS'_xDLHTs9ZqGOtQPYN-NgaQ'
p215
I214
sS'IC0awH6Csw-25fQSfnwNiQ'
p216
I216
sS'bWxxfPP08zWJuM5wKG0LvQ'
p217
I217
sS'yZasT2NGQxdAD6yqA6M0iw'
p218
I218
sS'gd9qcUV_sXbl9MgsvoGLIA'
p219
I219
sS'MBI9PGpox71jbi7wW9S40A'
p220
I220
sS'2b2J7kW1nTVTtiZtizw-tw'
p221
I2579
sS'm07sy7eLtOjVdZ8oN9JKag'
p222
I222
sS'eijfUFNF6flY-cY4Ff6BIA'
p223
I223
sS'HNqeYFG_-g9SWt8wfd66Kw'
p224
I4993
sS'BBF-yAOdEjq9n4qVlObOdA'
p225
I224
sS'seAX967Wk8qiVXOYjbregg'
p226
I225
sS'QdfFtp430K_-BP1GTPNnDg'
p227
I226
sS'iC5JO52dGKJNxfzp3OVLPw'
p228
I227
sS'S3gNrUh7N9oWoackKlHGMQ'
p229
I228
sS'hnPTPyh6wNfZe1GxOm21Gg'
p230
I1737
sS'MQTF8C-3xd5tcTAwPPXZyQ'
p231
I231
sS'is5vAvanYvmF-28i9no2LQ'
p232
I232
sS'-ngKtxn2tB_c3fnNouRM5A'
p233
I4325
sS'UVs_7nPjqK_W_ap96IClpA'
p234
I234
sS'QJI9OSEn6ujRCtrX06vs1w'
p235
I235
sS'Md_8xUc4MF8VA56zm5FK_Q'
p236
I236
sS'Ed20T0T3jkAqVBBiyXju6A'
p237
I237
sS'5DgFmyjW6hkBtXtTMKl4tA'
p238
I238
sS'hE34xpG35WugHznWf79HfQ'
p239
I239
sS'4bdffuUiz7XRYcqbDO11fQ'
p240
I240
sS'UhC292XUeK7sYR4U9bVWUw'
p241
I241
sS'EDBTE8HMO-iN5hAi9B382A'
p242
I242
sS'9uf4g85B_gz2W4d_GZI-Wg'
p243
I243
sS'3GXXeevx7uEdFMrVYekFyQ'
p244
I244
sS'8RcOuoC2eoI92LIbOkeAoQ'
p245
I245
sS'4OrFB2TDRsbokoYMhUf1EA'
p246
I246
sS'4DyMRBKrokax6d8LCI3GAw'
p247
I247
sS'sm9eRNiXNDx77Eg9G474fg'
p248
I248
sS'08mOpJRCpZe3D8UHszP4FA'
p249
I249
sS'ZLnmZ9eQiobM-PQ76Y2Riw'
p250
I250
sS'fRLeDaDyOLZU2ByBW_pR3g'
p251
I251
sS'pLlRrcoDrzX7QSlTTcG0ow'
p252
I4458
sS'hDSskc2p0Vh-xX41FWAvKQ'
p253
I252
sS'L8P5OWO1Jh4B2HLa1Fnbng'
p254
I253
sS'H4JNrBAoyCk_ZMZWbAf8OA'
p255
I254
sS'hmT6ygPjklrNEjvA2FYuVQ'
p256
I255
sS'zTK1nPD2Hpa-ksSXsE-JzQ'
p257
I256
sS'LiW90h8bxeIj7iY17VL9Zg'
p258
I257
sS'gqVEZhVMhn0Y0o2pSNpGAg'
p259
I258
sS'p6nBKyT9Y_pFJ1WxVEowwA'
p260
I259
sS'qlaVQkSxKcqfHJhoZU3rKg'
p261
I260
sS'mOuFY6Xz3eY8cTAoICfozw'
p262
I261
sS'lJsm_zrbNSoiqQfAWYH2-Q'
p263
I262
sS'cJVqHvDLN9g3GE4VfxDbZQ'
p264
I263
sS'3uyBZNbDk2vRFBBWZOdIUA'
p265
I264
sS'BPL8bDIem9Dfx6JeV8KJLg'
p266
I4818
sS'lIIyPdTWcvKfPfY6wscWvQ'
p267
I4464
sS'Vqgtngey014F0bqj71q0aw'
p268
I2587
sS'VZpzm3HG_YXPHvY97m05qg'
p269
I266
sS'JjXuiru1_ONzDkYVrHN0aw'
p270
I267
sS'_VMGbmIeK71rQGwOBWt_Kg'
p271
I268
sS'50W6VKW498OCuH2itdEbfw'
p272
I269
sS'u79JLmKzua7wxGxs1Q3Qkg'
p273
I3593
sS'1uys55OaSi9WMZyP-N_CSw'
p274
I270
sS'eZg60HZVrM5qgAx_3qf3qg'
p275
I271
sS'IrBr1IBag-P9NKOzcFsSKA'
p276
I272
sS'MeDuKsZcnI3IU2g7OlV-hQ'
p277
I273
sS'U9akxQ79rENMB0hR5E8Wxg'
p278
I274
sS'A'
p279
I275
sS'coXuUD1ucBra0mVrfq6vIw'
p280
I277
sS'oeFiWvoOG0hpMOXXxblfyQ'
p281
I278
sS'7-kypMrvP7E5WH8kog9K7g'
p282
I279
sS'IzbOz9Dt-Xu1jfu-fa9x2A'
p283
I280
sS'qWgOaWnjckpS5MAKUlfx3A'
p284
I281
sS'-vjSUjoYYROCHImyLenDNA'
p285
I282
sS'nW8ujzozMdCPeEhD-_QRcA'
p286
I283
sS'pD4c0eVE0ImAgcag4w4-lA'
p287
I284
sS'XCNi6raOHuxmI66Cg2Er2Q'
p288
I285
sS'jVYzrVblDFSuL3GHtt8ZSA'
p289
I287
sS'y6-ONuzNIxAfsgfeT53_sA'
p290
I288
sS'PYRIiQilTl1rkx83hm8ttA'
p291
I289
sS'LMPWMy_kvHjlUzVQ_9jz6A'
p292
I1745
sS'P4Df9eB4HAiMXn3Oz8VYUA'
p293
I291
sS'qgXcgfdrk5tzmLBq4_h6mQ'
p294
I292
sS'ybJkYYEBvFGVb-or4i9_oA'
p295
I293
sS'iQF2B8J3HDo8kDmd4eShKA'
p296
I294
sS'obnSWeGIYsjedPvy0_0Jag'
p297
I295
sS'NRrNQ5xHn_7Fu4ctlpKLbQ'
p298
I296
sS'ijezxGLPQIciFAb-OeeG3A'
p299
I297
sS'QTaXh4nvR8BMLFbWcu1bRg'
p300
I298
sS'V56AwFRZ7JErc_6dD5Wkbw'
p301
I299
sS'lQCY0csLfjdDn6cdVq43UA'
p302
I300
sS'0hDy_Y29b_Np4CidP_aylQ'
p303
I301
sS'0rlrQhDpQxhVFz3lj6d4aQ'
p304
I302
sS'Txa_sNMUSHfNzHwaV034fQ'
p305
I303
sS'eXb64jE75fF7Pgz-Gm3ntQ'
p306
I304
sS'R-c5M0iJkMxxTxIqTQQZ8w'
p307
I305
sS'8po6JTB5Q7VVZrm4YYzLCQ'
p308
I306
sS'zy5rvDRgPG1JUNbixZxwUQ'
p309
I307
sS'yWrPJWqeAS_oEQyUZMZIfw'
p310
I309
sS'Tuq59VSdqnCmotr_910JoQ'
p311
I310
sS'4EkDs9ZvbnmwGhmm6bGH7A'
p312
I312
sS'mZAsOUvjl7Kjlocvn9TnjQ'
p313
I313
sS'JMg2J3Z23o623Wn9bn4wpg'
p314
I314
sS'm0Lo60hQAkZC8rUrx5do4w'
p315
I3994
sS'faaOI6hU64h6SSaF0f11eg'
p316
I315
sS'epkRB3J_oBEiyiwahvdmGg'
p317
I317
sS'Pg3Q7516riCrzIXvPgGKQQ'
p318
I319
sS'g9cm_ocATY9_pMGmOjCXLA'
p319
I320
sS'0Kz8_kEnQcnztdGrovnWFw'
p320
I321
sS'caICV2psm7OABEkikMx2vw'
p321
I322
sS'YpGt3hdq5adPlEFn9fQ2Zw'
p322
I323
sS'OWnYWg8L67W-moQJkjrXPQ'
p323
I324
sS'8hawx1X7c5X5seYosSX9aw'
p324
I325
sS'sTW0gS1reTlPhrZYCDKH7A'
p325
I326
sS'iztl5NRH01qvWA0LEICw8Q'
p326
I327
sS'ZFAtjSBQDA3kDExHwFz4Iw'
p327
I329
sS'eLRQbtaAV9GwnYCwrxhFyw'
p328
I330
sS'CK-W4WhlmLKOZF-50WmmpQ'
p329
I331
sS'tXKTfiUh_3R1En0xYonXdw'
p330
I332
sS'CxokSknwJgvxMmbHPdS0tA'
p331
I3024
sS'Qb5zbzvIeyWPxtysZKVJFg'
p332
I898
sS'wWa9X07Cq8EVaqJrA5QKyA'
p333
I335
sS'QSA05SquUKJZnxasypxvjg'
p334
I336
sS'-KduD3wwydWDq2GrODh2tw'
p335
I337
sS'vcT0L37ONDpNomMZol_MXw'
p336
I339
sS'ipeEoKAGKF8Uw92rFOfjIg'
p337
I340
sS'dCATwLTGaDZAbSFxA-4pkw'
p338
I341
sS'GIjIJxRZs5cCjwW9iJFzMg'
p339
I343
sS'wrAvIgzoRHsLZddGlWVuKQ'
p340
I3746
sS'-NwDw6HgVpA4ys6WYcI6Xg'
p341
I346
sS'VRNF7v9PRqnfU3XpNmRxpQ'
p342
I347
sS'cJCYCEfDL4n5TgU9y8RTWg'
p343
I348
sS'6mMk9hO_RAbdGMEGeg3oWQ'
p344
I349
sS'7RLTk4rftgaUIDSau7RLTA'
p345
I350
sS'4pzr6KuS85859EICMI7MDw'
p346
I351
sS'2jXh1Joluq5iEke8dO4iQg'
p347
I352
sS'DRT-FcIa-ls1AqCX9e5Nvg'
p348
I353
sS'ILz8ApVEgTqbv5LnC6PyuA'
p349
I2600
sS'L7zPC6FjX72ITZaw_4D_ow'
p350
I355
sS'lAW03ccfMEuRZiDqvVgc0w'
p351
I356
sS'9U30DANobkrn3Zlu6T9p6Q'
p352
I357
sS'QWZ-mom_5DOPbcs1byDCCA'
p353
I359
sS'K7thO1n-vZ9PFYiC7nTR2w'
p354
I361
sS'UY3x_8KhKlrqVSDE0QKV8A'
p355
I362
sS'DHUfDrzWi0rTSel-14RLoA'
p356
I363
sS'w8flMOM04LfF0175Stp3AA'
p357
I364
sS'OLGQ7alK4VKl3YdQk6UF5g'
p358
I365
sS'vTbQZNz8FH4jcrni7Vkl1Q'
p359
I366
sS'O8M-LETl8rMBPwr9E8HxXg'
p360
I367
sS'DRPMOcCHjtEjlfLyulvMNw'
p361
I368
sS'Xwnf20FKuikiHcSpcEbpKQ'
p362
I369
sS'Ba_cWbzh2Wghm9runQ0WUQ'
p363
I370
sS'LFZn7jtMpFuAyVg8n8LPqA'
p364
I371
sS'ACofs6fXBVRS8GG-KDhatw'
p365
I374
sS'F-7uHcoHDmm38DQ3NeLN4w'
p366
I376
sS'eW-IQGFyOcqg-aKuhxKf3g'
p367
I377
sS'ImJzPTxC6yBzLidJmTCqlQ'
p368
I2605
sS'qHmLQQZF1GKrU6HFZqZqGA'
p369
I4774
sS'bDXSrl19qIe0Hb-cZcCJ5A'
p370
I380
sS'2ZI7f2CRul38wb_1X1lR7g'
p371
I381
sS'APoAugdz6nscL4HjF4Oryg'
p372
I382
sS'VL12EhEdT4OWqGq0nIqkzw'
p373
I383
sS'CNaHLXC45cR07vtDeFYeww'
p374
I384
sS'l'
p375
I385
sS'EvXwnFVVYVWPMIT-7AyKZg'
p376
I386
sS'2YuYRqSTsqHHZaiWXpo3Aw'
p377
I387
sS'VtiE3eXNYtH-tb0aFCF1Pw'
p378
I2608
sS'KFiz7nL-lRFF-xIgOPZLkg'
p379
I389
sS'JkyZ_0wVGoyYka5Pbw6Z6w'
p380
I390
sS't903_es-gp3abvdrIQutQA'
p381
I391
sS'ZHqwFU0t1XGk7hZGjA-46Q'
p382
I2609
sS'1JtpcHELRrSDoWS80WtzuQ'
p383
I393
sS'2p35UrsLuMspndW5lZjJgQ'
p384
I395
sS'OXWEpw02Yq52_lFJ6c2Lbg'
p385
I396
sS'co64BGDz5U4i-VOwhJgn5Q'
p386
I397
sS'Eypq5gLLjCapBVVnMw_MyA'
p387
I398
sS'0uEqdNTVj-I7zM83bbcgsg'
p388
I399
sS'B0QGBVCUm54vs_waVzcScA'
p389
I400
sS'tgc4EiUhLO8nlws4Uy0fOQ'
p390
I401
sS'4He0DrXT6KM3lS_6quYtzQ'
p391
I402
sS'5jLkKtE4HPlrbjw-0w9lvg'
p392
I403
sS'GmRcci8kgknB0cfq2cAOCw'
p393
I3470
sS'eCcjxh8zjAqn-kZVWZ_HJQ'
p394
I404
sS'48vRThjhuhiSQINQ2KV8Sw'
p395
I405
sS'0sl4I8R7znWXp_K4A0nZ_w'
p396
I407
sS'hHOBfSyLJNU24jx3rUyIyg'
p397
I408
sS'ugk0g6vyv2XavpoTaJSy6A'
p398
I409
sS'B9J6L6fVSrJ3cT8lif3hkA'
p399
I410
sS'9zEr_yHvIKVQ7m0VDnc7gg'
p400
I412
sS'kDJmNIv__FpSLXd5SlJ8oQ'
p401
I413
sS'my4q3Sy6Ei45V58N2l8VGw'
p402
I414
sS'BDjiEmXljD2ZHT61Iv9rrQ'
p403
I415
sS'lj3rJy1dUuHMDnqU_OCfsA'
p404
I745
sS'mtpek5XdI8oqrA5KCGFXZg'
p405
I416
sS'yz0s55qwi_WqVjmbyZ9ICw'
p406
I417
sS'sO8A8Vltrn-7HPlIvGwXTQ'
p407
I418
sS'_xzu_cuxhcbbfx6ASYev_g'
p408
I419
sS'VQecZ-mrtF29hDD_AJbDHw'
p409
I420
sS'1kpMAKRZuAz3OzxBav3XTg'
p410
I3453
sS'AvNmiWFeRlGg5LrhcSj6MA'
p411
I422
sS'4u8zZaT5m7nO1WazdKA2sw'
p412
I423
sS'A-HI7Mcr_-SL60T3WvSjiQ'
p413
I424
sS'wzyGNvArcpUjZauRWFrKHA'
p414
I425
sS'47L1cPtV-jeUt0BAOZlTuQ'
p415
I426
sS'FHfjAReTovbu0chLv-WGrQ'
p416
I912
sS'8h1r7mXd-H225yDgc4EMPg'
p417
I428
sS'Y-rRZqS-46HnBJxrj-Im_g'
p418
I429
sS'FysDiqCS1fxxwC9PLHNqNg'
p419
I431
sS'zSwb7qNpSgU3ekHMpiHsOA'
p420
I432
sS'o_oDHtflOmzr4-0xGoEW_g'
p421
I4965
sS'QhpD_YU3_RDMKjkH5DXMYg'
p422
I433
sS'osSzFkfeMP417i9Qb4rmEw'
p423
I434
sS'EMJV9rib660I4RpMsbzWbg'
p424
I435
sS'lSZdRFG1RDcOMqGGMz-vtg'
p425
I436
sS'g-wssBxG2znpJVKZE2N-lA'
p426
I437
sS'e3fX7_qkoSm-6-yTdlwcXw'
p427
I439
sS'a-9t439Vd_-AXaiIgYVqig'
p428
I440
sS'7vmobu3_6jDDSDWOfUX7iw'
p429
I1792
sS'hUDEUz8PddhVTShshwQWWQ'
p430
I442
sS'6MSwGECvmDMINzhIT_uA7g'
p431
I3333
sS'qNrHLZPurBWJzeAMkFLvvA'
p432
I444
sS'tGgTIueZy1JNTzQD9rkZLQ'
p433
I445
sS'f-0UwsC4dmp_WHe-NbbEVg'
p434
I446
sS'YCOwZztY3w6KbmlETuHm4A'
p435
I447
sS'XsFTrDbmDw7O_9rdfKmzvA'
p436
I448
sS'rq3S_5Yg0E8ur0xWyZBczw'
p437
I449
sS'QhYJx2jQdPuSq3fGe3aGcA'
p438
I450
sS'Y28OmPKJAea34sbJuOMqxA'
p439
I1771
sS'rVxwIq-GU98GC2xMulsSqw'
p440
I3885
sS'Hzt2Rv6SHaZZEb-4peqEPg'
p441
I452
sS'y34g-mvZ74Qad_B5FQbboQ'
p442
I1772
sS'_gcDdPUVA9wwSynicxcpzw'
p443
I455
sS'c2BbxDdn6QTy33682gQDvQ'
p444
I456
sS'LnwPPaXfR5BZUx56HtrpEg'
p445
I457
sS'ltTLCzM4p-1cnC70SPNfSA'
p446
I458
sS'7NV6kcM2Mq5qY1drWD7LIg'
p447
I459
sS'5mG2ENw2PylIWElqHSMGqg'
p448
I460
sS'YNhG4eGMB2sgbTBr22eIZA'
p449
I461
sS'PAx6EkkOO19tvNtjuBzVgw'
p450
I462
sS'yy_KQA1FtwilaG-7LB4BgA'
p451
I465
sS'3DqeuxNWduWVSSD44d2zPQ'
p452
I466
sS'hWDybu_KvYLSdEFzGrniTw'
p453
I467
sS'-gN7r8iOBKGeh4LJkn2QeQ'
p454
I468
sS'QUiEPHClIuOylnxq114P3Q'
p455
I469
sS'ffPY_bHX8vLebHu8LBEqfg'
p456
I470
sS'ET8n-r7glWYqZhuR6GcdNw'
p457
I471
sS'GpgBEengSGt1SDH67ATF8Q'
p458
I472
sS'QxirJzUqvYJ7l0pMQu4vXw'
p459
I473
sS'Z88N6qly3Dp5C06XbZ9IMQ'
p460
I474
sS'MGrNMMePj0kw-6LIL1SflQ'
p461
I475
sS'qy8DP0GZ4KIsNdnepjSLZQ'
p462
I476
sS'I9vkjKs1O5Ctf5gy0ry4yg'
p463
I477
sS'F7vgCzNV-cSGvTn4szQDuQ'
p464
I3521
sS'PZFrRD8EHsd3WLzDOYv64A'
p465
I478
sS'R2vRgTl5TXVRHWE8a8TFyA'
p466
I480
sS'AHz3sGxkZjAzv8uu0Q9hqg'
p467
I481
sS'Agmc_I-sCsw0RFKKdmJI8g'
p468
I484
sS'4mjnkd8oJVCfBKN3i4rB-g'
p469
I2623
sS'2E2LAo_ZAvo7FE18VDAJCQ'
p470
I486
sS'fHqt_c3oDQ4ZWFzeOo4ezA'
p471
I1778
sS'Zl1fJNTzNULZiqBRShxUYA'
p472
I488
sS'zUKeZNu4tCG56xjwWH54Vw'
p473
I2863
sS'm3qH3d97shbvSCtmUrpDFA'
p474
I490
sS'2tyq9mcWU7JzMmyWK8xOcA'
p475
I491
sS'M8Fre7R4ZGbc37Jv5V7TGA'
p476
I4850
sS'cqjRzEUUGfFVvNodtHNKRw'
p477
I492
sS'kUXozMM-hvcSW87bM21RMw'
p478
I493
sS'itI6CqeR92ikei1n86N5sg'
p479
I494
sS'VjUuaL2A0QwrRZ8hDdFf7Q'
p480
I495
sS'Gqdykv1mSGCwv8g-AaAytw'
p481
I496
sS'qmSSQNWodZTVCFAk6mjYqA'
p482
I497
sS'RYjt1X8Plwayx0cf6aLobA'
p483
I498
sS'f9xHtDot9Yjqalc1x_8-0g'
p484
I1966
sS'IzsHx__Uh7zm21mqcjFXgw'
p485
I499
sS'rJ5MQbmUTI5CCxUVD3HCmw'
p486
I500
sS'fquTEV93jh82JYob6u0CEA'
p487
I1781
sS'3ybT68AhqUtaZ66BUNWwDA'
p488
I502
sS'Z8Q6AZm63tM3eLz8vmdk9w'
p489
I503
sS'0CKo5RHHoN6AI7vSMnKV_g'
p490
I504
sS'bS61QwzLfsyGvNfDl4-Ebw'
p491
I1782
sS'VRw00O-WCrVHaGTk1Jk6Cg'
p492
I507
sS'TqEOK7uxaXj7SbJZKEktxw'
p493
I4663
sS'RuYYtPAdhVjQ6u6GqmgZHw'
p494
I508
sS'47oIw-CN1guUKx2_vUdsgw'
p495
I509
sS'Wosiv4OHAJSAC9Ept2ferA'
p496
I510
sS'Q'
p497
I4136
sS'yeGIAyHixJrIe-zmXiePWQ'
p498
I3356
sS'fefbZ3J59Ca4WMmLKa-D-Q'
p499
I511
sS'7JAdkaWbXuXA4YULqxKaMg'
p500
I512
sS'1ljC2JgUafYC9wtEUXJ3bQ'
p501
I513
sS'ULUhb_FrcmL0BAp1b34DUA'
p502
I4792
sS'j14WgRoU_-2ZE1aw1dXrJg'
p503
I514
sS'NBJVYt7sO-2WDg3bPwBT0Q'
p504
I516
sS'lnNbXpgbyvORdiWkA38HsA'
p505
I4952
sS'NdSNQXoxiFeNZQ1M6uB9fA'
p506
I517
sS'B'
p507
I518
sS'Z8MQ8HXITQj0715Nmia2yQ'
p508
I519
sS'BbEQf8-Sj4xeHO6Vnw0izA'
p509
I520
sS'JsOZKgLrNq2XXPZu4Shesw'
p510
I521
sS'5jJjY5_R06Og56VfjIc66A'
p511
I3494
sS'qCNZXu0nA1m9_qQDSY9bfA'
p512
I523
sS'51Dg7npqsTegnd1ZDxVb3w'
p513
I524
sS'LdyVNZyPl6vR0THDPw5zIQ'
p514
I525
sS'r_Glb3juFRGutD_3jjJ2DA'
p515
I526
sS'K5F_Ag9X28p63SLRvH0ytg'
p516
I527
sS'evRwCG9m-lwfL5TeCwrAhg'
p517
I4253
sS'Uit6vvFxthHbwOHIYI0sfQ'
p518
I528
sS'HYmGwYXvcYmW7dDjuWKJfw'
p519
I529
sS'0QCmOyP02YTBzo0xOSAE2w'
p520
I530
sS'Ry1O_KXZHGRI8g5zBR3IcQ'
p521
I531
sS'AMlrT5EPdonx-Uan3X_w6g'
p522
I532
sS'7YOVtML-Ghzc69Ww2BptDw'
p523
I533
sS'NP-675YVy9URhNmdQdnWsQ'
p524
I534
sS'nuBFHHkSlzS1UrWg7h8VKQ'
p525
I535
sS'DeMB9AsAoUMskzRStGnZmg'
p526
I536
sS'JUT0U3HTSB3kz9Wh7N0GqA'
p527
I537
sS'BUKjX1nSmMLVjhGfR4u_HA'
p528
I2630
sS'zokfv2tiS3NEaAl9IW-LiA'
p529
I539
sS'6WSKtJBe-jCTrZQ0b4uweQ'
p530
I1789
sS'F6Z7c6rEQETYEU_g2n6C0Q'
p531
I541
sS'qgLwRvE6JkK_KnbuT5AKmA'
p532
I4561
sS'KOVqZ1GEVMnQwqoWxugpSg'
p533
I542
sS'Ur91BwZjjrgBDb3dACcDiQ'
p534
I543
sS'eKUGKQRE-Ywi5dY55_zChg'
p535
I544
sS'9u8D55VqYWZWdgTO0FxuYA'
p536
I1791
sS'IzJ36jX6V6ky5BtoN-Agng'
p537
I546
sS'JB_Qflj9Q2I_c-22hcMwKA'
p538
I547
sS'r9Wii37p0kEDIUt2e2_LqQ'
p539
I548
sS'M63uPVZtCv7ReY2RgJRmOw'
p540
I549
sS'WwmWdDCJREohcxQqfnOL-A'
p541
I550
sS'MAatw6IQHYCqeATbHHMz1w'
p542
I551
sS'Z128ihQea7BLPh2T9q9sKA'
p543
I553
sS'To0GTLW5MGZwOg5TxxZIQA'
p544
I1057
sS'm-Iu8DZx1M0sZmvtJzq3_g'
p545
I4190
sS'IUSDyfv9t2V0G3vrLd9ZVQ'
p546
I556
sS'ciXjBfJrAEteIKpzZg4I9g'
p547
I557
sS'PB3OEIzQGx_p6VdpzX3Feg'
p548
I558
sS'9gE3SbLNfL5z9qntDkhI8A'
p549
I4789
sS'kW2dk1CWihmh3g7k9N2G8A'
p550
I1794
sS'_tpzswb4NTS4bniz9aM1nQ'
p551
I560
sS'PjjxS9YFL8TwkyzEUH91-g'
p552
I561
sS'fYkqa_hvgbnTPGKenYFMgg'
p553
I562
sS'FfUvoqoM-sK2YrCyVfj_uw'
p554
I563
sS'daFmmMy1Jy1d6sVqMWSZgA'
p555
I564
sS'XX1zm34nF9OS70WGAC6pEQ'
p556
I565
sS'HONxKyEIJInF-yXmRH-hYw'
p557
I566
sS'_VGIPT2dDMJvAsRjjQcD-A'
p558
I5030
sS'AQGMTHae70n3MnONotAuYQ'
p559
I567
sS'cKJ0r01eF7E-tYp2FQOyRA'
p560
I568
sS'Rvn-Ymc8_9z4vbcm2ZwenQ'
p561
I569
sS'MHmKe1NQ1pCpIrbK4XREDw'
p562
I2910
sS'C1ccV5ednpSJSL5NKibCOw'
p563
I2636
sS'DVnDB6C2m5xqEFnjfwCdDA'
p564
I571
sS'h02t1zNqvg7uUC39WxzN2g'
p565
I572
sS'60RKNAZwY5EUooJf624aKw'
p566
I573
sS'pnECgKPRtM_VFF2XGJZ0mA'
p567
I574
sS'iLjMdZi0Tm7DQxX1C1_2dg'
p568
I575
sS'IHStW8moCu7vON_f0uO05w'
p569
I576
sS'n1rvxZn1ynX9g7kesNOHIw'
p570
I577
sS'EBW16o-gGF1mzGC1LgjF_w'
p571
I2103
sS'-'
p572
I579
sS'HAv257_IVJnQT0ZIL8Nn-Q'
p573
I2639
sS'gohtypzRfwDN5VDTiP7nXA'
p574
I581
sS'WeVkkF5L39888IPPlRhNpg'
p575
I582
sS'OF_wL63KNyf9r2_PuFL-yw'
p576
I583
sS'9TKDFXMvFNCmgTBzASFLXw'
p577
I584
sS'frVBhLcVaeMm5Fbe_NzJIQ'
p578
I4114
sS'PNvTArxaFVZF_Qfw3HVPRg'
p579
I1800
sS'-uglef88WEwkI6UlAqwO0Q'
p580
I586
sS'_U9qCns_80YNfoSedKgzdw'
p581
I151
sS'pRfWy61wU9e1nrCVrOEWLA'
p582
I588
sS'lByMP4tkeruOw5HdjtXTpQ'
p583
I4752
sS'WWWujmZ95y0a2RR5_kQ9sw'
p584
I590
sS'qXTZ2Ffu-Esa3I3F7u9HrA'
p585
I591
sS'D'
p586
I979
sS'y8jJV4AeH6ZEBagQ_ys8KQ'
p587
I593
sS'li5pwULg5kwUf7CjN7uvCA'
p588
I594
sS'vQRlJqdASZC97FU12xzIeg'
p589
I595
sS'uZM3pJLXJwSmHBabnRSFyw'
p590
I596
sS'JysF40STBTmx7h-sU1FHgg'
p591
I597
sS'83hGjT-0qeA-x3wKM7X5Zw'
p592
I4938
sS'wekw0bbIv8o61WkTg7GPkg'
p593
I598
sS'VYOQLKuR0Ugy9lU-QiOuLw'
p594
I599
sS'PkNs-Rw6MHQfu6j5pBZMMw'
p595
I2644
sS'-Oqfoc4KyhzYY0qvSkxkrg'
p596
I601
sS'mtbgOS4lra7vtP2RmqBKkA'
p597
I602
sS'WslBIvrC1ezr4VAvPMEyMA'
p598
I603
sS'864nL0po2ldN8TPgbSiwOQ'
p599
I604
sS'ctXFXk9-m6PCMoI-Nz2_XQ'
p600
I605
sS'Isf8G6HPbNqEisKDjmUlbw'
p601
I606
sS'IdnbvI-jYalwwSdLldiw0w'
p602
I607
sS'08Dhk90xsB7X_0CmMfYMCg'
p603
I608
sS'j-X6katTF0OfkdgO6FQFfw'
p604
I609
sS'ITWi6Z_nZ8mmiSzpSUrDKg'
p605
I610
sS'1Sl_w3Reyrirhxp4wpW4lQ'
p606
I611
sS'jOU73K85NeMzBsqwJtfu0A'
p607
I612
sS'2X_OQjrZz2IJZtxiyS6u0w'
p608
I614
sS'hai5FdTAK8jP11TynSaBGQ'
p609
I52
sS'RkWYdiLCzKXM0EcQjAySfA'
p610
I617
sS'awqtQmC1QoUxOdmdQoeirQ'
p611
I618
sS'm'
p612
I619
sS'V-FI5ytm8ZAe8Lo6wdTdBg'
p613
I620
sS'LCtohr2FPQTZeqaClhDoLA'
p614
I621
sS'_oEWe8fnyAif0sBYrju-Lw'
p615
I622
sS'R'
p616
I4392
sS'TfSnkfJFrjyyuuNDc9l8JA'
p617
I125
sS'd4vqfqDzNFvYppXMPjJrow'
p618
I625
sS'pNvcz5tOmbpJRKVQT8wSBA'
p619
I626
sS'DT5JuPKzBEyJCN3EwZV9KQ'
p620
I627
sS'4ULkSSMp3-JH8HegrlfgzQ'
p621
I3486
sS'MjlNTynslY_aLDTfGODuIg'
p622
I629
sS'q29FCCdaG-pjRFUMGHydVg'
p623
I630
sS'9TT_mBR1xKn5I62vg1yu7w'
p624
I2674
sS'I-wq3PJNBlaZ8tpi0SdS8A'
p625
I634
sS'mphvb6MRmPgnIT8pmU-x0w'
p626
I635
sS'dBCcu2Zi4gT-oOOgBq6YjA'
p627
I636
sS'mE-hdFF4RgCxspZU72GAsw'
p628
I637
sS'23IksB8Sz0K1Z3ybTQiu6Q'
p629
I638
sS'WqrwIIhDfNpf_B-K9jx4KA'
p630
I640
sS'EO1Cz15wYnHQ0aGc9T6tzw'
p631
I641
sS'VDseKKt5Oe-4fU-z9bHJiQ'
p632
I642
sS'SIi_wQ9PEYvUfRRGo72Bkg'
p633
I644
sS'CMW-yrCQrRnhAg0yvRajvA'
p634
I645
sS'yVwTKNsyh-QXbN9WVHEhww'
p635
I646
sS'YDAL4CBJcp3xrYgAGVGgaQ'
p636
I647
sS'-eVlHbM2KRZQnBqfTXtDvw'
p637
I648
sS'xwBDKSzM5QCAMpr2sHjDKA'
p638
I649
sS'ZSbnQ5LpxAR_95P8nV9xfg'
p639
I650
sS'OgYi5x02MBukfxPNFe1ePg'
p640
I651
sS'NAZBH_z65b3336FlxRjDZw'
p641
I652
sS'xYUequ2aqMzq8kjfFMFVPg'
p642
I653
sS'N4K69ZdyU-B8NzVYxwjK0A'
p643
I654
sS'nOr3_aq60yivqgcso_iDMw'
p644
I655
sS'p08F3g2_lSSdzyjnVcvt4w'
p645
I3492
sS'cEzz_mGm2WHeYqTe9LK2zA'
p646
I657
sS'pDfL8xt8F8ls0-kQIG_ADg'
p647
I658
sS'61KHh-BznR__JiiN5iMwHg'
p648
I659
sS'EtcETPXxdepiv0t9hu6M6g'
p649
I660
sS'g8j2ci2FcvmocszcO6ypNw'
p650
I661
sS'-0IiMAZI2SsQ7VmyzJjokQ'
p651
I2822
sS'ti4lRf8rv9KICw6msOJT0w'
p652
I662
sS'KjOhQyC6kocsEih0T2Uc6A'
p653
I664
sS'_OdkmjDV-L4w9Z89tmW-EQ'
p654
I665
sS'0XXIv9a0LWiaCjAkurjMMQ'
p655
I666
sS'7qY2KOV-9OsvlT2qB6NgDA'
p656
I667
sS'W7DHyQlY_kXls2iXt-_2Ag'
p657
I668
sS'uhirQz-txi8034oWsblScw'
p658
I669
sS'WPBrjBbk76ZtZQ8QpG09cQ'
p659
I670
sS'Vkj42md-5O3VoOD9pBg6Sw'
p660
I671
sS'viwKpVVaOhWur77Sh4L4cw'
p661
I672
sS'vKUlUXLVylwdttu7h1_Y5Q'
p662
I4401
sS'Im_pTCVCm-xCvvim1JtdPg'
p663
I674
sS'8ciQzrRSDqCeS9EIYdpkvA'
p664
I5053
sS'4OgPAPL0zCXmdmV5_oe3vQ'
p665
I675
sS'B2F7f8NdlBUESv8cskE-jw'
p666
I676
sS'-qPxBYRKN-ca9RKzdDV8Dg'
p667
I616
sS'VbhQF98kILGyc_-YHrysRw'
p668
I678
sS'Tp9EvdZZzFFwfH1m2SVJ9A'
p669
I679
sS'wWrte62dLZaW5DnOfDDWqQ'
p670
I1816
sS'KNM1RlfBICsA89YoxUp9uQ'
p671
I681
sS'ZaWbwSvAH5eOsQVxZ4wmLg'
p672
I683
sS'CJmtS1Uk1KSsY2MWol_E7g'
p673
I684
sS'0KeT9NKimYkHN0wlrij-dg'
p674
I686
sS'DEFk299pEBqKgUgQ703V9g'
p675
I687
sS'QF3FJ_lLCGUrYk_vamsRaA'
p676
I688
sS'7WvcuiYDzrNU8DGzl8Puyg'
p677
I4643
sS'xJafm7vGSkUI5ocgYkCWkA'
p678
I689
sS'P2fXcmsU_vrs4zB2IfsHnQ'
p679
I690
sS'qtWYsp3Fagzr-yWtJvO8JQ'
p680
I691
sS'C1WsGwpZzMxKJSKsDwlDPw'
p681
I692
sS'1vXJWH7L0IMEz5-8aU3SOA'
p682
I693
sS'wqYymJ0z9oFI2Unl4Ni2gQ'
p683
I694
sS'yFlu57fNdST7YhizHIFniw'
p684
I2920
sS'vF_63_AW2iAleOeVkGjjwQ'
p685
I695
sS'bdHbRb8k9Nl18W7UBH37aQ'
p686
I1848
sS'8rNzNxp054ydMQ19v6iAYA'
p687
I697
sS'_uqIpl5tzucKuIlZZPBZRw'
p688
I699
sS'-_yEJzliiEXpzlAh2vf6pA'
p689
I700
sS'zHvS1F_6wOPSLUk6vpDEGA'
p690
I702
sS'mwQCoS_tJUK7JC6cVw_mdg'
p691
I3928
sS'NZba-Q-Fp10iF77CTQt24Q'
p692
I703
sS'b0fGy8CuSTsvQ7SMThmQEA'
p693
I704
sS'AidlKNsFcsTucVCWBebXmA'
p694
I705
sS'TGl6Qqk1NUWo__YMqLAlgw'
p695
I706
sS'nl3bDwEL0bd3zya94OWH6A'
p696
I2659
sS'q31f3uFJsFTNFFolAQkWCQ'
p697
I708
sS'yNE7_6V-78CZ2cnmjO5mIw'
p698
I710
sS'qs8q8a7znZUseGkOepNf_w'
p699
I1822
sS'Uwlm6u10dSFvYSpppbehAg'
p700
I3504
sS'zQxDUhxKOHdZygnNRZ-4ng'
p701
I2661
sS'C2LrqqSUDPKZW1AlRcqnuQ'
p702
I714
sS'DS0Idr2XDhz5e7ZfSy0dYA'
p703
I715
sS'ypm9IB9iZkwY71FKkYeLkg'
p704
I2662
sS'JKIkdVqAJLEXTq92gF98bA'
p705
I717
sS'eurIEcpGa_tTi1LMWa1pUA'
p706
I718
sS'9bLLhB3Ji4miHY6I4jxgvA'
p707
I719
sS'RO78jiBkX61pPweJLVlCgA'
p708
I5070
sS'ybIoXWnrkfC12PJKTs7pJA'
p709
I720
sS'rof9DyrMxiWY1NyQHtjeDA'
p710
I721
sS'S7VG3vBUtJDLKX_ewbc15A'
p711
I722
sS'upqjX_WdWgIBKqcGe5jXjA'
p712
I723
sS'UVUIi0q38pAvsfuEEppe0Q'
p713
I724
sS'ePm0UDfRzThVIsIK5gSp1Q'
p714
I725
sS'WNbVCtfq2lGMEwLDXyyd6A'
p715
I726
sS'HdrdiwMYkhWI49lmNPeziA'
p716
I727
sS'0510RFduyAjoyXwklkcYJQ'
p717
I728
sS'Bz1kW9-YSBA0kGWRFS0sjA'
p718
I729
sS'WWnhqRnWWjutMqh-2SzEuQ'
p719
I730
sS'zsgH8afv2CDkn93jHtfBUQ'
p720
I732
sS'NgaeAkPQ2YLUumtBuymv3Q'
p721
I734
sS'p7OZx3RIeJPxSM4hP6wqEA'
p722
I4560
sS'5wT0vDycEzgq95yVCZ60Aw'
p723
I736
sS'J4ZLNtDFRMN5lCwvFs9zww'
p724
I737
sS'iYeLvhAGiUgKeNkZV19_IQ'
p725
I738
sS'rgHK4_IdibIrF990TTRoIQ'
p726
I739
sS'7O1_x_3IlgjpY9BkiZ16xQ'
p727
I740
sS'5gbkhlWANGVzQYi_0m3vOQ'
p728
I741
sS'bTFZ-cepM91pdS2PFpvJiA'
p729
I742
sS'IwHLuykqqmGVNHJ_UCwXWg'
p730
I743
sS'dsX3MiQiTy3OVI8MKn0I4w'
p731
I744
sS'7z50dr2py6G8YyFHIn4KFQ'
p732
I897
sS'ci7Q6NvXQ8UZrBHusVX18g'
p733
I5144
sS'MWuVbyBgP4vD24Rc7UH5xw'
p734
I747
sS'r'
p735
I1828
sS'DFih6Bhiw6_slNN5z39c4g'
p736
I749
sS'YJ9oyi2BwqXwxl3DKoKHdw'
p737
I4861
sS'R4Jif1Q7vseoA2TqfzeQPQ'
p738
I752
sS'henDqMyd5F1K6jBnHTrYqQ'
p739
I753
sS'8uxM42p7cksj13vjHGy6Pg'
p740
I2993
sS'23J4vG9_xxxdnmi8CBX7Ng'
p741
I4416
sS'xoNpQ_DnzNuTbkFPPO0Lgw'
p742
I756
sS'C'
p743
I757
sS'btKT25J7WJoWB1tPvF7ugw'
p744
I758
sS'3jikK3gKIflSPGgM0Ro2Ig'
p745
I4865
sS'E9m9adcWg9h8mRX9idm9Qw'
p746
I4417
sS'zkg-1BFMTZrsKy7mjRrrsQ'
p747
I760
sS'8sW6YwBkyO4LhWvhknmzog'
p748
I762
sS'o_dPk6REa-SPz0RD4J04Zw'
p749
I763
sS'ZsFF2j_Bkruztr801LWarw'
p750
I764
sS'puS8HuNdeXhhl5F4bb0EEg'
p751
I766
sS'YcmtCs2XKvWU0dv1L4tenw'
p752
I4787
sS'N0durDai4PQJSkVEvO9QvQ'
p753
I4996
sS'm8nDqQ7a3zQWfkNK1_vwnQ'
p754
I767
sS'qhoDyf0vDNOAKn6dX2lCBA'
p755
I2670
sS'-B-QEUESGWHPE_889WJaeg'
p756
I769
sS'wjClsIuhEjZN2OlkoFPKnQ'
p757
I770
sS'mGx4_NFJsOGiowPRb2hnBg'
p758
I771
sS'dfYNTBw--CYlZbFz581kYQ'
p759
I772
sS'mkbx55W8B8aPLgDqex7qgg'
p760
I773
sS'seoDhKRxvNA6UmsOGFQt0Q'
p761
I5140
sS'8jVT2inwc8GIQ6sH2UG9Vw'
p762
I3391
sS'WfePuaS_iXGNGU6bfDe3JQ'
p763
I774
sS'U5vnrSTvaoFLdaFoe5r1Yg'
p764
I775
sS'IDVFG1pNSHIHoVuoLuZpcQ'
p765
I776
sS'qlTwCtl1aqctl-Kw2CRQ5Q'
p766
I777
sS'q91tQNboB-0HWtM8cXRjdg'
p767
I778
sS'kmGSeElZ7uHpw-2mFrUgaA'
p768
I4064
sS'Egu4qSFR56EhGuTHZTaVjA'
p769
I780
sS'YcSDGPRj-cmmadlaJLTyqw'
p770
I5032
sS'isQxsxlCjj6P8GQ_uuFwew'
p771
I781
sS'w57Yn8npGhdDHmHFGKk2jA'
p772
I782
sS'8wQIoFapkegkC5fcVYg_Iw'
p773
I4992
sS'yoJBUFLzL62VB2xo8xfAxg'
p774
I785
sS'UqP_EOPKa-MQfydgWXsxvw'
p775
I786
sS'YRcaNlwQ6XXPFDXWtuMGdA'
p776
I787
sS'26r9hY9bx-D-RXxktc3XzA'
p777
I4732
sS'N7NnC6-q0O-Gq2n_7YJkNg'
p778
I789
sS'9bvlW5Gos1kxzvcM3c-12w'
p779
I791
sS'YTdNcIWAt2nEzZ7NY-fniw'
p780
I3475
sS'pSoe4XBftnJiTgG1fPw52g'
p781
I792
sS'6zZPfuZkDRzSkYY9EvVJ5A'
p782
I5160
sS'j6wLUT0ZXi-x0otelYIFpA'
p783
I793
sS'hXaRCEtK7175XyLPSDM-Kg'
p784
I794
sS'GIf_n2V6TnLj5OydIrJqUg'
p785
I795
sS'73DZUFYAXuycbJ_eEAox1Q'
p786
I4425
sS'EE9txZm_zUFqWeYGVGaFNg'
p787
I798
sS'GYMIDghm2k7gSTpyKNid1Q'
p788
I799
sS'41HLwXnR0Lm3NUp01cIOQg'
p789
I800
sS'ws7odoSagwni-BlTtCmmmA'
p790
I801
sS'wEE-YMx5pmSuagLtNxMPKA'
p791
I802
sS'3tTOsiDTjGiuXhhQ18OIfg'
p792
I803
sS'GXn4ZsasLKh0qZ5g3nIqcQ'
p793
I804
sS'v-HcprOKPC1_F5_15t4JDw'
p794
I805
sS'_1SKSmLqpHBqWh09DxQMfw'
p795
I806
sS'0PGQWRDjFDhvnGkipBG_wQ'
p796
I807
sS'cwbjd4cT9jlQybaQ_orxoA'
p797
I3440
sS'HR1wozuAE_3KAHFP1XvIjw'
p798
I810
sS'GGCHD6b1IcENHQ-pXLFYVw'
p799
I811
sS'OHVhLKw_uIE7saIt_S-udw'
p800
I812
sS'OiRnzvW40RQ6tqcgk4jv1Q'
p801
I813
sS'V7N4zvbBz4xz_NCTRm-yfA'
p802
I814
sS'-ZqPTpx9TyyvdAWbajdilA'
p803
I815
sS'AbMjnKOwg736fcIu8apuyQ'
p804
I3524
sS'Am_G2m0pwVrEg9AoUp5tow'
p805
I4438
sS'HJj82f-csBI7jjgenwqhvw'
p806
I817
sS'pq9Xw58OEUK_DS-RB7X9MQ'
p807
I818
sS'8sAGXoMY7I9quLmCO1F8ZQ'
p808
I819
sS'QXAkmRjGJvLg3fX65A9oNQ'
p809
I5181
sS'fh93ouf_bjBXAmjbqwXy5Q'
p810
I820
sS'oDa9wgyowQiKkgTG9cPNJw'
p811
I2677
sS'cafRiSVWRXlxDEK2YNrJ6g'
p812
I823
sS'qntQp9UoeP6ju8D_W0Y0cw'
p813
I824
sS'QOlY5FYliVVvkgqgtjdP_w'
p814
I2678
sS'XNPwLVwHPyrOaEQA_sI1wg'
p815
I826
sS'ppsm8EDKjA1fp1yTCP3RrQ'
p816
I827
sS'JzyhTurcfA8u1hqM7J0CgA'
p817
I1246
sS'ig5IJbIuq-gopoPIEUlm1w'
p818
I829
sS'IDVX4Is4CanREchBmpFXoA'
p819
I830
sS'OaRk-RwFEzfOtc45ff0fGA'
p820
I831
sS'zwLq4aVDSH7HyMbVjKfkRg'
p821
I832
sS'JP75FtAg9zCXug359pXs4A'
p822
I833
sS'3TOA8aDpcnIzRLrdFnRH8g'
p823
I834
sS'gfY-BGAJMINto1WK8w6orw'
p824
I835
sS'RnOUzL2fXcRMGq7AZy9Ptw'
p825
I836
sS'aGgNm24n_jpgD52nhbJiHw'
p826
I4946
sS'OdbIVdpXvlaU69eDR5AUaQ'
p827
I837
sS'4w_W3yc23UiNvW5qpX9SSw'
p828
I839
sS'0dIvVs3PY64bE3PZF-8V8A'
p829
I200
sS'YCojkf140pN7s3R2kVM9VQ'
p830
I841
sS'v8LsrRdGGniNzXtw5-Z92Q'
p831
I842
sS'XHtxE4o-uziJaoOYEkvk3g'
p832
I843
sS'Wc5L6iuvSNF5WGBlqIO8nw'
p833
I844
sS'nkVxroqpkPTrKtvP15L50g'
p834
I845
sS'FGkySKSuG6ZjAkGXlsMVXw'
p835
I16
sS'9Vmqj86WQ6WTU8SdSkfBCA'
p836
I4528
sS'Vf3DJncooLUHWYele0Cxrw'
p837
I847
sS'uIB8qFzG5E3PUGfiCiUmqg'
p838
I848
sS'Fbio_hP3XGglNvg2fIQzwg'
p839
I849
sS'6veSoRwdfGBjxigxV91BsQ'
p840
I850
sS'l2uNHbNrt6dmW7PNklJRdg'
p841
I852
sS'6EWIu6Ea04qcFAL3XSalvQ'
p842
I853
sS'AFCSE7BT3FGle35em1WWVw'
p843
I854
sS'n'
p844
I855
sS'k_TavHq78rXiNcv81M7Fog'
p845
I856
sS'qlC607Cyp0Mj91vDFvkp3Q'
p846
I857
sS'RgDVC3ZUBqpEe6Y1kPhIpw'
p847
I858
sS'hIlQOXn094Q205B_vu7Sjw'
p848
I1845
sS'gbx3IYFKB-36HhV5wM3G1w'
p849
I860
sS'Kw6qblhrjvnZWfxMbUZokQ'
p850
I862
sS'5kMii2JySygayQpyPBjqCA'
p851
I863
sS'Qpd08KT4tuBPYDDrtYD_8w'
p852
I864
sS'BQkC6RneYfvfG6wRe0hsvQ'
p853
I865
sS'nmqX1cxPOYHwql5e4U9LuA'
p854
I866
sS'cf-J2rZQyklNDFuTEeCIMw'
p855
I867
sS'crgWPc35LxjJccLFVQsQig'
p856
I868
sS'PoXotAFFt6x-GmH8_SRCkg'
p857
I869
sS'IBrL-6twlZmQBGLdV2DQiw'
p858
I2829
sS'T4qbZR0VHBPESlB1l7jTZw'
p859
I872
sS'5Ep1wVoIeTjbA1mk9-6HhQ'
p860
I874
sS'JSukkufethSwEr-FGE3HKA'
p861
I875
sS'25NDlYy0wzjq7mh3IiCp0Q'
p862
I876
sS'sg-U2-yVKDukw4JblbhiqQ'
p863
I877
sS'SZq4WeQXRFkU5JtesPjVkg'
p864
I878
sS'izoKblvdpxcDkoEPAKJ7GQ'
p865
I4727
sS'7O5VR81Zv-fp2vsqPaxafQ'
p866
I881
sS'z96eQlEDrQVvxtKyymwTLg'
p867
I882
sS'oHgFEYuxCs9KDmYZ55qHOA'
p868
I883
sS'G66J4Z0l0kXBKBhbgqm1IA'
p869
I884
sS'TTXdVPTinvm5tEA-_w-DcQ'
p870
I886
sS'DCnqvmdvbu04hTAv7DX-Mw'
p871
I887
sS'bWTIMv6FKnkOEfxw7yR5jw'
p872
I888
sS'gk5BjGoT--YRci9ZJ_WElQ'
p873
I889
sS'ifaiZxMhmWGy80zs8ohDYg'
p874
I890
sS'4Xi2i_i1RzKkoJ41_1JHig'
p875
I891
sS'bLbSNkLggFnqwNNzzq-Ijw'
p876
I892
sS'RAVJ9h2pbejfvuzPknleMg'
p877
I893
sS'AK_jwiwOcW4YU-dlh-uciQ'
p878
I894
sS'WDpvs6U_TCx4799oxXcnag'
p879
I895
sS'AkIZlaQe7GUXttx_epYcfg'
p880
I896
sS'ut5tH2ITDRUH5NQ9I9gdQg'
p881
I334
sS'GiC_S3Hhfh02Yy6c9prDvg'
p882
I4444
sS'0j3tlj2GGMdTL0Zg5cmTUw'
p883
I900
sS'RtGqdDBvvBCjcu5dUqwfzA'
p884
I901
sS'8OeTLey-p-WaL9ErNEci1Q'
p885
I903
sS'o--zHBo8ihFUeqBhbx7Qag'
p886
I904
sS'1FAKs3CAQQLBgdB23GeDIQ'
p887
I905
sS'7cHWhNINXgJOL3Pvonds7g'
p888
I906
sS'wQxtHpZw1D2t9C-on7as4A'
p889
I4370
sS'ci3qVCiV3h7YVqDlrj4-yw'
p890
I908
sS'uI5Rve_2YWFrhX2rowdkUg'
p891
I909
sS'FIk4lQQu1eTe2EpzQ4xhBA'
p892
I910
sS'0gjhJz1pS47DfOmvL_9Ixw'
p893
I911
sS'mKrN1RWhpmgLSbXNUFVpzA'
p894
I427
sS'waqCtS3uLZJzxb8lGPztig'
p895
I913
sS'B0ENvYKQdNNr1Izd2r-BAA'
p896
I914
sS'2kp4e139Uzv2EhlwBidfTw'
p897
I960
sS'aTpaOvF1FFGj8t_5U2_kHA'
p898
I4832
sS'OKX-V5j_qfuOebeHeWGrHg'
p899
I919
sS'Frpav5mTr1bZhd7hkiwWxA'
p900
I920
sS'y94FS7iXvZp9QISUc0F__Q'
p901
I921
sS'gfHU-4ZzhMwdtBwu3NALWQ'
p902
I922
sS'Y'
p903
I924
sS'fdwVdy6TuY1kjYeEPMZKVw'
p904
I926
sS'AaPhPor834YyMwCqOxytdQ'
p905
I928
sS'70JHliVId4FzY2_29gocHw'
p906
I929
sS'R4b9uTzOI-9d0ussqSqR5g'
p907
I930
sS'NoJyv0pHrcY8kWzgYhjO7Q'
p908
I5026
sS'FAxFj4HQChpKxF6KL0rMnA'
p909
I931
sS'3hL4RHGVClTwXPUpv0DuGQ'
p910
I932
sS'bAQDB1qrktXHEJcyd82Gng'
p911
I2696
sS'HYomiwV5G2AJZ9hDnk7zdQ'
p912
I934
sS'V-BbqKqO8anwplGRx9Q5aQ'
p913
I1859
sS'OrnQ04JCGie8Q2ymFF97FA'
p914
I936
sS'T'
p915
I4903
sS'4ZaqBJqt7laPPs8xfWvr6A'
p916
I937
sS'YoaQY0EZmhYCgTLtz5sd2w'
p917
I938
sS'RmzQffNQ_GEzHfLB7_aAsg'
p918
I939
sS'O3pSxv1SyHpY4qi4Q16KzA'
p919
I940
sS'r0KvePHM3_VIgb7bPwx-pw'
p920
I1861
sS'Lzd7FTvMOvfg9WmR4MoNxg'
p921
I942
sS'zH44KRL-vS2-BkeGay_Bhw'
p922
I4716
sS'dIQnYbjf-rTxn5dQoRr0bg'
p923
I943
sS'skxAQWpAe1VL_3F4pxqK2A'
p924
I4608
sS'vCyvUmbQkCYct6JXlmXRaQ'
p925
I944
sS'Sg_BvnTHsbc1AABiJjaiPA'
p926
I945
sS'dDdCpvIrmuwiwfs6CD83fw'
p927
I946
sS'LjNubz7Q5VJOzRY5j3Q_nw'
p928
I947
sS'6SK_vCkbIFC8xQ-vSSoK4A'
p929
I949
sS'4y4obgWxi_CL25nRHrhuEA'
p930
I950
sS'7GVA958q4zs5Z8cdHauU5Q'
p931
I951
sS'oJM__ikXYo0HpSa9LjhFgA'
p932
I952
sS'6aJNIB8yGHDiwrzyxlExRw'
p933
I953
sS'TEHiUF-e8pa37rByg15MmA'
p934
I954
sS'tfg1Nhwx94Y4GdQHLVawbw'
p935
I955
sS'lxOcZ1VZ58nSCFgcunecjw'
p936
I956
sS'wd3xoNaDLib8dhQ7BxUl6g'
p937
I957
sS'SRSmzTPA2dX2Zpfa2uE4sA'
p938
I958
sS'uG6qidYu8pWMrRoB80tbFg'
p939
I959
sS'1ghFOCMBpo2bGaWu_c1tcg'
p940
I961
sS'weCeiXxZBhBY5mX9y6jS1A'
p941
I5113
sS'pjF0bsc228VVT2YDH4EcKw'
p942
I962
sS'p_azadim_uWFOXAhhKB3ag'
p943
I963
sS'33D0N1TPCeovpv8-L9dTyw'
p944
I5024
sS'ddS-8c3JHANKlmGKh3CgOw'
p945
I965
sS'soj3EaoFAhGqWgzGlfTTtg'
p946
I3555
sS'8Aq_UdlsrjhBwGWb_U-xRA'
p947
I5079
sS'onY0SO_5Zl0IjO6R4-SVrQ'
p948
I968
sS'adKonsQWY64vJYglPotH5Q'
p949
I969
sS'DeqIeM5LTAC4MmYLtJxn7Q'
p950
I971
sS'R8sHBNWREzNUZys0NFFq6A'
p951
I972
sS'HFItzRohDHZvcKDrM6ABZg'
p952
I973
sS'EZmocAborM6z66rTzeZxzQ'
p953
I974
sS'LUX42pnp5aTbzPE1AKIeOw'
p954
I975
sS'O59T-4QC1Ud8euM8mq834A'
p955
I977
sS'dmRueUwj0JMTlNZfTj3ZWA'
p956
I978
sS'H7pj7sbXY3N-WSEwa-JfpA'
p957
I1143
sS'o2b3y3m4-sT4jUllCn2-oA'
p958
I1592
sS'WP7FsUsgNW24s7HH5xi7pg'
p959
I980
sS'wuT2zH7Atq-98BirpB-8Aw'
p960
I4678
sS'-mXobpJ3z3X6nMriCklbog'
p961
I982
sS'0XOVMcvzlfKRPqjbmCN5pQ'
p962
I983
sS'WC1m2B-bXg1g57AyvzAL-Q'
p963
I3268
sS'4TJF62R5ytolOmiMWKtjGA'
p964
I984
sS'z-R-_pNPK8FqHFSfC422SQ'
p965
I985
sS'p5eKzfGUZ7duXbDM0AM5bA'
p966
I986
sS'gFugBMLclUQlXvDGt9MMQQ'
p967
I987
sS'Hgg-NXs0ikGRLLbmppi00w'
p968
I988
sS'7QvDBjYGPyITqTWiO02aaw'
p969
I989
sS'g86couR6Jp0zkActZmZzTA'
p970
I2963
sS'-V7frksbFjKQYVhrPnnlPw'
p971
I990
sS'H02XKvKhgroCtPd5O5U3bw'
p972
I991
sS'AyVI_VJ3My6ibiIkcLQYGw'
p973
I4088
sS'd'
p974
I3558
sS'wfi0T-xq_P5sKQvwQitlYg'
p975
I995
sS'DM9uO9U819x1ugQ_ojSg4g'
p976
I4465
sS'8D8mjeNaJ3DGhl0WX8copA'
p977
I997
sS'ViL_qMtXxLcT8EddI-pkIA'
p978
I998
sS'c5x707w3UKiVIt3OgpU8fw'
p979
I2851
sS'EUyKk8kEs9-aJuc8nmm9MQ'
p980
I999
sS'h7cX02YMLzyobfZ7E-mg-Q'
p981
I1000
sS'ARCeY8XFZ5mvch6kbqahQg'
p982
I1002
sS'0f_0XfO2qcgNwSJAHwfR9g'
p983
I1003
sS'jNsPTMmg9EcqY7q2Q-Rm6A'
p984
I1004
sS'SHglL1j11mSoOb8Iw8JlxA'
p985
I1005
sS'mn_KE-TkvEaVuhIAlpHstA'
p986
I1006
sS'VF6EHpw0robbkfAkuympMw'
p987
I1008
sS'_fGysU48tncAdUlJHbMwXw'
p988
I1009
sS'Ctrp5IoEKHkixDSIyYHDpw'
p989
I1010
sS'0G-QF457q_0Z_jKqh6xWiA'
p990
I1011
sS'0V4Ra6jCmSAgFtCiORr4QA'
p991
I1012
sS'cDi9iq5zV4cvb8MrWXAZ-w'
p992
I1013
sS'gjh6da4yHahEpQ73O6DX_Q'
p993
I3564
sS'PGJ4eb-8tmvea3XzqIdc_Q'
p994
I1017
sS'Q9mA60HnY87C1TW5kjAZ6Q'
p995
I1018
sS'q0HDybhT0V9dXrs63_WqWQ'
p996
I1019
sS'Ase_kJIYuT6yOsqqVPuWUA'
p997
I1020
sS'dpv0kzoTjiTlbaidEdRfyA'
p998
I1021
sS'vkxKfc-S4X7AvlMSL64ngw'
p999
I1022
sS'yIj3DxyTtNr9gV-g--9oqw'
p1000
I1023
sS'd7CK2tNS7mwwR-MlSjs23w'
p1001
I4796
sS'SIl3M335--lcq7Y2Xrxf_g'
p1002
I4597
sS'FN4UY8IjXRZYHsO9YcrDYg'
p1003
I1024
sS'Z-_-m5d3j4ya2g14IszzTA'
p1004
I1025
sS'eipO40vDyfHFXug2ElJ7Yg'
p1005
I1026
sS'YEk-6rfOCLmEA7Cu-u8xmw'
p1006
I2736
sS'h3KpLypa9SZEw2ydFNC19Q'
p1007
I1027
sS'wsc6EkWfDnru6vmS3e5OnQ'
p1008
I1028
sS'YAUMYdqhuLuHfQ7Y7qzkMw'
p1009
I4890
sS'7RlyCglsIzhBn081inwvcg'
p1010
I1029
sS'ofZzcj1oiHS64f7jbGCXxQ'
p1011
I1030
sS'0qQI-n_ZfrwBewAgr1Nt8g'
p1012
I1031
sS'L6iAzwlfXc2WK7a6XxkviQ'
p1013
I1879
sS'2CNchVdNpFYaIRIP-fQ7Qw'
p1014
I1033
sS'qLMT6tS074Opsaz4qkbjVg'
p1015
I1034
sS'PcgtOrx8nNChB__ccEPPDw'
p1016
I4472
sS'naq2UQIZYeZAr9mKLH0Clg'
p1017
I4266
sS'zNaDJXGjGro-kwu37h4e3A'
p1018
I1038
sS'-hKniZN2OdshWLHYuj21jQ'
p1019
I1039
sS'4k43P1zuES57ewaGC4jYjg'
p1020
I1040
sS'dqfLce72HaUUj9E-nUxT-Q'
p1021
I1041
sS'j6VXX4PRh35YzT5MRxIuvw'
p1022
I1042
sS'Kw4lH6C5wSrYVxaDP68pfA'
p1023
I1274
sS'3czAF_mZoDnGZnbMEOUkDQ'
p1024
I3765
sS't8aJIHxkutRlWMRNSvpq6w'
p1025
I1045
sS'eBbIYdWMsnDd3b5n84TfSw'
p1026
I1046
sS'jPhjJnQ2_3_-tu__KTQZlA'
p1027
I1047
sS'tXMMYZQgczzZPIIhfV7jhw'
p1028
I1292
sS'TEtzbpgA2BFBrC0y0sCbfw'
p1029
I1049
sS'nMFlEQRj3MAeo9pcjbGCKw'
p1030
I1051
sS'ZGoIAIfTuJeR0pwWDRL6sA'
p1031
I1052
sS'tPufvUuxXLJOMYQ7gzsMVA'
p1032
I1053
sS'MzXPOK2_T5O8GF-4qUVmGA'
p1033
I1331
sS'9zK9ZYmGa0ciHf2NlucboQ'
p1034
I1055
sS'M1cMsRL4L7IUr9RILDywEQ'
p1035
I1056
sS'_MQ4g7zXJZkrD4iBf6O6Kw'
p1036
I1058
sS'lX89A57ZsdTGx2BXaVLlYQ'
p1037
I4475
sS'eSzVqwzChlyV6W4bJmIVyw'
p1038
I1060
sS'_0L4WNYQ6f6y6pMYzJ3b9Q'
p1039
I1061
sS'u8rOz8HMECnEnOueLS8hWg'
p1040
I1062
sS'7niQ50opD9MjfDU8A4S_7g'
p1041
I1063
sS'-q0rmCOPCgakJJ0H2mJ1mg'
p1042
I4477
sS'yH3Jyu5vRTAJ8uMAD2bLGQ'
p1043
I3406
sS'AftFelF-uWV83h4nKTFawQ'
p1044
I1066
sS'Y8UTUzqG-JJGKGC0Fv643w'
p1045
I1067
sS'6l7VXFVWb79Cv0vezDvq2Q'
p1046
I1881
sS'8Lc3-TTHjExd79GSQIHnAw'
p1047
I4624
sS'PsQE8GI6ZybxZDUxOmrLSA'
p1048
I4522
sS'30vjKdW6wNF5i1Hu-6-agA'
p1049
I1069
sS'-9I98YbNQnLdAmcYfb324Q'
p1050
I1070
sS'WTEDhjNLGoxmNVvzcH3Rkg'
p1051
I1071
sS'8ZryN_S-n48g6rsa3W3QtQ'
p1052
I1072
sS'EcFUfOvZLQSgS-KHWKJSUg'
p1053
I1073
sS'6iShvMPfeDS3dq6grbmmbg'
p1054
I1074
sS'kORGcgi0Iw2RG8gJl84MVA'
p1055
I1075
sS'DZ_5D_HjEDx7RSLAYoWm4A'
p1056
I1883
sS'Uzcfz9lPWsy39OsO4mYSAg'
p1057
I1077
sS'sPbKpor4w91rp5Dw2EhIbw'
p1058
I1078
sS'mNxjE1iEFc_AKRcAmiLyoQ'
p1059
I1079
sS'MbBhClrXyu8-Mk5wW5y8tg'
p1060
I1080
sS'5TY_Nb_e5criDA0yfhW6TQ'
p1061
I3587
sS'RauTrVwuImbpAw32m7XZKA'
p1062
I1081
sS'hntJTn1Ev6TXfusbvTdutw'
p1063
I1082
sS'BwFEjsr9yLqdszAmAxFYQg'
p1064
I1083
sS'qRAOR112QS6n1OpRVo0BWw'
p1065
I4674
sS'o'
p1066
I1084
sS'qEv3LrfTm95_VJfU0hFQwA'
p1067
I1085
sS'_j1KnsWLVz3AU1mmm0G0JQ'
p1068
I1086
sS'-THLGnsYKu3yQAsy_tt1fw'
p1069
I1087
sS'Jt3GylPuH64uA3zTdbMdCg'
p1070
I1088
sS'aVBZ6TW7o3Lx0BjplVYF6g'
p1071
I1089
sS'rQrqrb5dFztAeFYwyqbygA'
p1072
I1090
sS'yhiHc_BwoU2kuOFdwwCdAg'
p1073
I5021
sS't2G80WU3NeorgWkXiTbWDw'
p1074
I1091
sS'rGd8YUtvhSdMm8-9cMdQ4Q'
p1075
I4936
sS'WALNtcSZlONK4Yj-o3pzKA'
p1076
I1092
sS'OQ4eJiFoxe0H0Qp0kSZV0A'
p1077
I2724
sS'L3oQUMEwPWgP5imexgBz5g'
p1078
I4095
sS'oW2bCSJ5bIHyRnoZvkHwDg'
p1079
I1095
sS'lrp5aQP31ar3JDlbwccfHQ'
p1080
I2725
sS'CESIxRplQxxE0ruEXrrVSg'
p1081
I4319
sS'eMAmkqtFhhqkzTWKcsARSw'
p1082
I1097
sS'veLWPGA-1MMtcRNDYWm-BA'
p1083
I1098
sS'GksgDgj09Zl8foywi_Egmw'
p1084
I1099
sS'8wKZ9gJYJtTdSVWgW7Or6Q'
p1085
I1100
sS'qX9rK32qy5hiYo9EPPJftw'
p1086
I1101
sS'FArIEoSKbCcVqWc2eWNFXA'
p1087
I1102
sS'nx7hGb1sjJFtmdNh5RHYQg'
p1088
I2726
sS'BBdRlIK_eeFhdl4EL1pLAw'
p1089
I1106
sS'gjRvBu1th-YobqPwPTysJQ'
p1090
I3676
sS'Wo_ASbM3pzJ4r1Qf6CcNOA'
p1091
I1108
sS'JseBksW8DVL596kJ18GGpA'
p1092
I1109
sS'9FknGjHHH6dzxggVw9QabQ'
p1093
I615
sS'QKhJkTpDuwnR6TozGT1eqg'
p1094
I1111
sS'vx6BAchvzvetqHOOe3-sQg'
p1095
I1112
sS'ZbOK_2m4kifew3lzTep1yQ'
p1096
I1113
sS's8nkbQAlrVPfg1u4anGKtw'
p1097
I4806
sS'72sDyd8DWp-wPRjon6ZQpA'
p1098
I1114
sS'Da_ZO8lKwIacljqKUJbAlw'
p1099
I1115
sS'msOVLjTebf51njN6n22CiQ'
p1100
I1118
sS'xMKpXNaicvI-BgSA69yp9A'
p1101
I1119
sS'sw-vrx-GT5fMXm77gjck7w'
p1102
I1120
sS'WlWgl1aWl-8wGZYUncV-2A'
p1103
I1121
sS'53-0CIUo-pd5ysfvHXb2yQ'
p1104
I4486
sS'FLMRT4tDE4VlM1wyDK5QGg'
p1105
I1123
sS'FdQZxULvI4GT0-1meVap7w'
p1106
I1124
sS'dgGUKdOh2a01OwLw1qgfDw'
p1107
I1125
sS'DRH27qFWsNjMF6dMBwOMGg'
p1108
I1126
sS'1ziEzn7BoXTfOQ4YBkdz1Q'
p1109
I4801
sS'8tdpq4NS0rd9c0eyy9M2lA'
p1110
I1128
sS'aXf5xoGRB9c1MEsG8keZyw'
p1111
I1129
sS'XHuNSjrPA3Vyi7n4iVhZaQ'
p1112
I1736
sS'W0TobKzkaqtOZpIe0CrENQ'
p1113
I1131
sS'7fZu8ud7JXFthU0jPxVf4g'
p1114
I1132
sS'3lUkFxUQKeMUYH7-z_kmjg'
p1115
I1133
sS'5ECtmLzrurE0RcNpmTwXaA'
p1116
I3588
sS'yFqO3NGu5xHOo20Xs4JUjg'
p1117
I1135
sS'c_1j2RMp_2jnWOEjlP9twQ'
p1118
I1136
sS'sFZjAfSAJ2hZ1CHLsJscxA'
p1119
I1137
sS'ECjfeIqrQj6e7VXVCTOleA'
p1120
I1138
sS'nr35WjC-YI0dFcsnW33Szw'
p1121
I1139
sS'6'
p1122
I2733
sS'gvOuN8PAUJHOfbO03dOgUA'
p1123
I1141
sS'DlDGcxQZqGyzx5dLXiYXaA'
p1124
I1142
sS'AdXzyZfkpy0p88-mSG6oJw'
p1125
I4066
sS'-R3Liu8xDWu-VpWSW8YlKA'
p1126
I1144
sS'qMUVULJZ_acMAm78dx8IQg'
p1127
I1145
sS'IOC3Iuu8t3hhtPMt9ibmpQ'
p1128
I1146
sS'CDZWiihsmtiP-cgBRSSljA'
p1129
I1891
sS'AHRrG3T1gJpHvtpZ-K0G_g'
p1130
I1148
sS'BJhx7WNoR6BsXdJTZu7dfw'
p1131
I1149
sS'beW2I8sRZr1CDC5szfjW8A'
p1132
I4573
sS'N9Futp2p_4r8R5MLcCRMVQ'
p1133
I4097
sS'UFeT5Jvd2UL2LSiKgj8Gmg'
p1134
I1151
sS'Tsm8VraTp5OGyVALtUiCeQ'
p1135
I1153
sS'y_sVbJ1gUa7En0a91Hhf-A'
p1136
I1154
sS'brQ7OjB6f9nXWGk45A9A3g'
p1137
I1155
sS'bMGXNeeymFqyaISCKJjCkA'
p1138
I5142
sS'PmaoxQJ6Grzv-egRdJlmUg'
p1139
I1156
sS'efMDfLm2k7LY6l5sg4t8fQ'
p1140
I1157
sS'HFkkaeT0XPTrybJledif2A'
p1141
I3592
sS'WyvvWRCCHizctkFdGWz72A'
p1142
I1159
sS'P4Td3m5oMGZGTfDVZzgztg'
p1143
I1160
sS'a8Ttgr3TJUjApRMpCzppWA'
p1144
I1161
sS'_0hD2um4s7q753OTbL-DuQ'
p1145
I4969
sS'Sp-S4y8rx1xIX3d5VOK0bQ'
p1146
I2505
sS'UqkrP5O2ToeXRcYbp7okIA'
p1147
I1164
sS'uDYNXKTd_cixNNfsyWg57Q'
p1148
I4491
sS'w6DoAYVMd5r0vXPbSZcU5Q'
p1149
I1166
sS'U-7EVbeRf1wlSZfHW_gujQ'
p1150
I1167
sS'E68ZPVpcuWhxvnjq8vTqAA'
p1151
I1168
sS'QOwTc4i67airni8tVXmdaA'
p1152
I1169
sS'kmE8w5Y785eZmodsx0V6Ag'
p1153
I1170
sS'lCB2P0vuS1M7rdhRSI2Cyw'
p1154
I1171
sS'8teQ4Zc9jpl_ffaPJUn6Ew'
p1155
I4375
sS'9OiElGnF8CKML9X3H0w9CA'
p1156
I4926
sS'X1U9yCmR2SfaVjEMgMYkyg'
p1157
I1172
sS'ntlvfPzc8eglqvk92iDIAw'
p1158
I1173
sS'GsFr15zUG8wO9fsSHwvZUw'
p1159
I1174
sS'rW-iz5OKzzp2WOHh-CC9uQ'
p1160
I1175
sS'_owMBYfzT9dO7FXGXXzXqA'
p1161
I1176
sS'nRxjaVrNn7Q9m2N5mBCewQ'
p1162
I1177
sS'whINg-cC-FiAv_ATDGMDTg'
p1163
I1178
sS'ypewwof4Ab4gxZyIaDgzAw'
p1164
I1179
sS'ox8j0BRwYVVjNxFPosoJ3Q'
p1165
I1180
sS'gQspVZ78KbELItUKOxOblQ'
p1166
I1181
sS'Lfv4hefW1VbvaC2gatTFWA'
p1167
I1182
sS'ZVT_oZ_wXGYIoJxfzowF3w'
p1168
I1183
sS'3k7GJ9_zqE14Z3IZ9M4iSA'
p1169
I3596
sS'WbqMdZRi5FeBJHKvwtNhwg'
p1170
I1185
sS'i6nzTfZ8TRckJOGgZIpr5Q'
p1171
I2350
sS'jYU_LUXAwyt7QFC91QUyTg'
p1172
I1186
sS'gReqm4q-A-vfsAgicBsbtA'
p1173
I1187
sS'Hg5J-w6M0aSVPh9duetNmg'
p1174
I1188
sS'CRLA264qZO-IxB2gQOnJmg'
p1175
I1189
sS'UFcsAMlBDCOXz2iGvU7j9A'
p1176
I1190
sS'tL2pS5UOmN6aAOi3Z-qFGg'
p1177
I1191
sS'qh6Mkc7Xr-h0QdfY2atfoQ'
p1178
I1192
sS'u0bwW1sf97hhNzTvkagEsA'
p1179
I1193
sS'dKCEIzXWKjQoorZ4R6PBvg'
p1180
I1194
sS'SXfvHWScLghzoTSBqb_e6w'
p1181
I2740
sS'l0U0PfzzVMm9s4KshP6T0w'
p1182
I1196
sS'SOZnTwFFFKeSzIrL8Vl-6Q'
p1183
I4092
sS'my36mJlxoSwNoA_rgLkLAQ'
p1184
I2402
sS'lYyWUsl47zaEoKJQxuqLcQ'
p1185
I1903
sS'PLOYtrCMUFPHQe2IbYAd5g'
p1186
I1199
sS'7NeuNizIMb6lB0VoDLNrjQ'
p1187
I1200
sS'Dp9vtkpgNti0BuG3202PGQ'
p1188
I1201
sS'fcNU65OaCj7slBJ60VSQgw'
p1189
I1202
sS'CSA-YFyZWlxPTeAZRJqMWA'
p1190
I1203
sS'zFYs8gSUYDvXkb6O7YkRkw'
p1191
I1204
sS'lixTHPjgKrbVlth-PF2U4Q'
p1192
I1205
sS'zWGj3oOA_X8QPho_l5BRKg'
p1193
I1206
sS'0kSXMbNFo7mdwTPj4iQv9A'
p1194
I1207
sS'2GxGId7gQm3rF5D8mV-u0w'
p1195
I3600
sS'9TbaCXAZi5rxV-cZPTi3Cg'
p1196
I1208
sS'xmd3TfxmZfj1Wq7zJU3Q8Q'
p1197
I1209
sS'SdyaF3_mFMdCig_25qW7TQ'
p1198
I1210
sS'r-zUIQPaHzvIyL93wQaoiQ'
p1199
I1212
sS'baY9cJBx7oprSZNKA3BIHA'
p1200
I1213
sS'rTKK_-3W3gIQEohj0QSFWA'
p1201
I1214
sS'IJytHzH09jStflMTv_UMpA'
p1202
I1215
sS'q_cYc9EJN1fzV7zwzc6MkA'
p1203
I1216
sS'oqCtfkf3IcwLF7A5iLlxlQ'
p1204
I1217
sS'g5J0eySHUMOOTe0KJHLOqw'
p1205
I1218
sS'tJfrTG8C-cGP7jgUcvr1BQ'
p1206
I1219
sS'ASvjSBCYRd4GhOtSIn8Gyw'
p1207
I1220
sS'crg97ztpsfvf6VQ0y8Nx1A'
p1208
I3988
sS'HCcqHUiz4m1fYLORXBs5aQ'
p1209
I1221
sS'rDqapmGz04gIUH-mecYrJQ'
p1210
I1223
sS'KDewJBJknfWvQyHHFNbfdg'
p1211
I1224
sS'e-Bh0XDCOgYMaC-BmdxkAQ'
p1212
I197
sS'GbhQXcNU-4--jFzJe4H0Mw'
p1213
I1226
sS'wm97KC6G0resSDXTmNIMKw'
p1214
I1227
sS'Wj0tIFlWz_1Uam1VDWYG5g'
p1215
I1228
sS'CNdJaOdUjLIceVxhWcMNRA'
p1216
I5151
sS'JwoMEL4XF5zBB9Auhj6VBQ'
p1217
I3431
sS'HM8mOekJ028ck9yfTpldPw'
p1218
I1910
sS'awmRirDC7WWig6R07XZ_oA'
p1219
I1230
sS'65qbB9h_uLvS5JTiC-g-0A'
p1220
I1231
sS'25lrlCp87N0jG8XMF75_Rg'
p1221
I1232
sS'H5d_nFqzwrREE-YduK2ABg'
p1222
I1233
sS'Yf0JwS-Zr2DQlk73TDzVLA'
p1223
I1234
sS'Q7IoE5m2heQKThuVq3SYFA'
p1224
I1235
sS'1hWXgcDzfvFmWMpBsXfqHw'
p1225
I1236
sS'EiwxlbR8fb68lMgEXhcWKA'
p1226
I1911
sS'xwhDvpei1SrwUJjawvfgkQ'
p1227
I4940
sS'kroQYWSj-BhIEXT4VwLRHA'
p1228
I1238
sS'X8niKKANe_S4qjNUQiSvug'
p1229
I1239
sS'BdV-cf3LScmb8kZ7iiBcMA'
p1230
I1240
sS'rHgT6lBbZ2PaHt0UWfTMtw'
p1231
I1241
sS'cTA0xNt7i6bTAR8geI8m_w'
p1232
I1912
sS'a7B1ow3HSP32vA3WhZ7RpQ'
p1233
I1242
sS'LV04Uyb5pnp36nn9pWgAaQ'
p1234
I1243
sS'xceJT1G2Yhel3W2lRxRTDA'
p1235
I1244
sS'LnFIWZM_l__4t8Qxj3pnOg'
p1236
I1245
sS'ya0gjXEHjpvuLIFybCajcQ'
p1237
I1247
sS'sYQyXDjGaJj7wfaqz5u8KQ'
p1238
I1248
sS'yjj1fdcjhn_HkMMt3eJL_w'
p1239
I1249
sS'rqMYol4ZfvLm9WmIMtV4IA'
p1240
I4212
sS'GXfrchFxdldoJXSEqUcdNw'
p1241
I1250
sS'MInp33w5vvHeBo68BAPmgw'
p1242
I1252
sS'xhhE0txKwQtRzgQVVdKkvg'
p1243
I1253
sS'W2WVinNXzhx0OK4Zy2nS4g'
p1244
I1254
sS'4SJS_m-JXc0oASx6x5Mjkw'
p1245
I1255
sS'0UmLTnN-W6rfwqfwPsHyUA'
p1246
I1256
sS'3EIc7WAoiojTFdy3TGOMfQ'
p1247
I1257
sS'EvrT_21w6SsR7c5No-QcLQ'
p1248
I1258
sS'-W6xtdIAXOvnxb1FbLsOJw'
p1249
I1259
sS'wB8ATiDKotKsP-jEPJgwtw'
p1250
I1260
sS'pEMWzZ8qWY1T_K0HUoKDIA'
p1251
I3608
sS'V'
p1252
I1262
sS'X2uF3C3YBD24xcgKA104Sw'
p1253
I4510
sS'EpIlKrJJBOkBrX01Ms-i0Q'
p1254
I1265
sS'ox0DtIS-AzUiVeGFkIvlMQ'
p1255
I4606
sS'09T1oyi6c-9lvyt7gQCD2w'
p1256
I2751
sS'nOs7s96Vmz9Emn7IIsLTeg'
p1257
I1263
sS'4IjzfbO7XKFNWWVufHNhww'
p1258
I1269
sS'EblK20dUUogxra1VI23BGQ'
p1259
I1270
sS'xDl9ZF3SckkZde_48W6WeA'
p1260
I1272
sS'1PfEtkSwdXiyeIqExpeKOA'
p1261
I1273
sS'gVO3VZwCu54Otc7bUB33Mg'
p1262
I1043
sS'EEt-cpeF8vPcleh4YKWYmg'
p1263
I1275
sS'Y6yg0sxJjZg7m2UdF9eGZA'
p1264
I1276
sS'HXwc6YOOq6hcZl0ovFeHiQ'
p1265
I1277
sS'LV0tWvAuDUkjNhfrhj5JFQ'
p1266
I4459
sS'574x3ezQTKDSsq37bi3HPw'
p1267
I1280
sS'f1cKpQLE4jfn0Rt5HV9vVw'
p1268
I1281
sS'lxt4LomsbAjBvk5POhDTEw'
p1269
I1282
sS'NfU0zDaTMEQ4-X9dbQWd9A'
p1270
I4912
sS'qFxytBrCr8jDpvKidZ2Vrw'
p1271
I1283
sS'Rx7DNBmPPShVjlcQidGuTw'
p1272
I1284
sS'GaTWkVy-pY6phZOqW6ykuw'
p1273
I1285
sS'h-Xe17qy0CRx4AZavazJiw'
p1274
I1286
sS'0'
p1275
I1287
sS'AgzHzIzC6ZHTKgker0egAg'
p1276
I1288
sS'AX6_NL1_GTM2tcN9jn8mQw'
p1277
I1289
sS'SHEziY_V4G60mVyLNvjLSQ'
p1278
I1290
sS'H5TEwR-OD0XxILGNaewohA'
p1279
I1291
sS'-S5PeV9TdDTQDAeEAYR8Bg'
p1280
I1048
sS'KavG2RBt77vRLqG1_6RBvQ'
p1281
I1293
sS'aFO_yCma7PImpdPkA8ZC-A'
p1282
I1294
sS'y7yK2KDb_C_xG-RBpVpslA'
p1283
I4515
sS'BdMDq5SXlDU07wxErRohTw'
p1284
I1296
sS'slrH6zwPlP8GHbm4lbGLkw'
p1285
I1297
sS'Vwwp4QxVhmP7uNJz4pdkDA'
p1286
I1298
sS'Jcbj338NjXtSiqvK3LYghQ'
p1287
I1299
sS'7gNtYzygF7dB8e7k1mWdjA'
p1288
I4516
sS'3yVoLX19pKAIPKFDjR3pqw'
p1289
I1301
sS'JA4Rw3qdKuGDCFbexnbN5w'
p1290
I1302
sS'ZQ6SaWr3BS6YRNZp8A305A'
p1291
I1304
sS'aZtX3NethA-CovPXH0tKyA'
p1292
I1305
sS'qLdaHR8V5Fcodr2ioytSjg'
p1293
I3410
sS'PVyZXgOkVtnU6966FDFhuw'
p1294
I1307
sS'92e_B3VDY5TqxVYsKuNzKg'
p1295
I1308
sS'Ic6-gs1_FjrWGx6JIr95Mw'
p1296
I1309
sS'2-qk8ijAEjYszDZXwRmbQA'
p1297
I1310
sS'GON8Ynfiro1jxnFoWD5jwQ'
p1298
I1312
sS'Khe-fzQpJ0xPlPwFckBjHA'
p1299
I1313
sS'Mh7oEIX2oHYAXm-HAxlfWw'
p1300
I1314
sS'Jd17L6-fmSZzzF-0Fhjhxg'
p1301
I1315
sS'B7ecAeAIrXg7sgmabS38pg'
p1302
I1316
sS'H2WhI7u2Zc-ozPnKBvhWwQ'
p1303
I1317
sS'n4315BNhxfgPrwHU7aJTjg'
p1304
I1319
sS'3UIa8YVjETNwJwnOl4SEdg'
p1305
I1320
sS'7c_VMI1wTQgkoPhHDOt_tQ'
p1306
I4846
sS'1m4Hmm7IbgGjVupM7CQSMw'
p1307
I4587
sS'yD1aRxezQ8XjrKogEfuShw'
p1308
I1321
sS'fIvzTi_mk6yq7LTw8xiHSA'
p1309
I4519
sS'pm0r_nssSfHTIG70ZjKNng'
p1310
I1323
sS'V4uH52BfO596yG7OAn5w-A'
p1311
I1324
sS'gZ7mbHLlQsLd6S_i5U69tQ'
p1312
I1325
sS'T274tm_tY7pNWAo-4bB0Wg'
p1313
I1326
sS'YKT0lqXc8U8HqH8Zqitynw'
p1314
I1327
sS'jsRjSlPZ67OR4YEgoucbtg'
p1315
I1328
sS'u6Z1B5YdCLJHEbocIBhQwQ'
p1316
I1329
sS'SSmuQ1rJEnc2sB9tPdC_9A'
p1317
I1330
sS'C7xIlClL2I60Db5P-TqgKA'
p1318
I1054
sS'_pBzBgtCTN9PNUPfgPDI8A'
p1319
I1332
sS'p'
p1320
I1333
sS'EiP1OFgs-XGcKZux0OKWIA'
p1321
I1334
sS'NqkcMnIXGNbWL7AlHrDmIw'
p1322
I1336
sS'FH79bierETA44QEW86mx1g'
p1323
I1337
sS'KqOf8Lih-rTtgr_V0WkaBA'
p1324
I1338
sS'9OvhmrCTN76k01nnTOxN-Q'
p1325
I1340
sS'fgkJ6KUlrmbKyLDQervxsw'
p1326
I1341
sS'W83aZrDrYKwycCHB_eOYYg'
p1327
I5062
sS'63tvEEkb1-iyBjF9MlkUlQ'
p1328
I1342
sS'Ieg1z6bc94U_RfS-OGxQ_A'
p1329
I1344
sS'5O0ejMUB7XHzyTf1rLu2zQ'
p1330
I1345
sS'CwgXzTGZOOI_8gA05aKM7Q'
p1331
I1347
sS'q2q0mZYs9c-iKU4pat31fQ'
p1332
I1349
sS'7DmUbNOJgTMYOX_Ap_Ja_w'
p1333
I1350
sS'aO_gRTqZUk6CZTdbUuy22w'
p1334
I1351
sS'XoSPy_9tHRuVkPZ2VeMVUA'
p1335
I1352
sS'thqNHm0GQe1Bn8LmRSWddA'
p1336
I1353
sS'K73tPv89_EWRs_oo8HBn7Q'
p1337
I1354
sS'CNiC7YaqoPwhaLPLaHnUAA'
p1338
I1355
sS'9emjvSrm4NBBYed_Ea--Rw'
p1339
I4524
sS'RqTFOl1wfQnRfeTcY4JA2w'
p1340
I1357
sS'uU-Rk1sj478gPh6Kug1wSw'
p1341
I1358
sS'IIKFTGBeMMhpE3lowYJfew'
p1342
I1359
sS'LAX-mM-cOJ2ownL-waC8ww'
p1343
I1360
sS'cnohx8UN5XyC7Evg2zX-3w'
p1344
I1361
sS'IDh2TpcAVoxklIBkEB-NGA'
p1345
I1362
sS'4rg-rTjYpnEjNOqi-ej4RA'
p1346
I5017
sS'7BiWqhSJ-h0drMp7xCZC8w'
p1347
I1363
sS'rrRZ2TubdRzkAksCwzHtvA'
p1348
I1364
sS'yY5KBM05U8C8b1HjNkej7A'
p1349
I1365
sS'0C65lVj_ujVYDs7b2yYBAA'
p1350
I1366
sS'4COswap8Sp7OcVyn4C6mjA'
p1351
I1367
sS'jCMdF94UyMHEi6iv8ys-gg'
p1352
I1368
sS'hqSXx-zbBvnWW7akjPhZNg'
p1353
I2764
sS'mBruzuCXfVQ3gug8H7EgdA'
p1354
I4627
sS'swmrfBnaqU0nyJ3pFBfNgQ'
p1355
I1370
sS'Nza9TrumxVALFOc3zpPxDg'
p1356
I1371
sS'j7Ew20Kh33lFEaUXW1rGNw'
p1357
I1372
sS'G5LXEaxhQMF_BVjNHkVr7g'
p1358
I1373
sS'lcQRKGDkc_uRTK_Yqx5z-A'
p1359
I1933
sS'R2247iVcSL6CBUItgheD3w'
p1360
I1375
sS'MDsrQ8PtiYWkcGvlVqb8sw'
p1361
I1376
sS'vWxQvbuUVMMvn6zvfNxVZg'
p1362
I1377
sS'cuVrNmt7_WtBn1uz5L_p0g'
p1363
I1378
sS'fDny65qdxn3EJH0PZbCxIw'
p1364
I1379
sS'wZPizeBxMAyOSl0M0zuCjg'
p1365
I1380
sS'__Ksf1CCgaKdS3Gi5f6PcQ'
p1366
I1381
sS'IZ3K3X2PUUZI7x0yXmKMcQ'
p1367
I1382
sS'rc4USKiO676ehEqj2vESBA'
p1368
I2765
sS'cPJZGsyD1onwRMpaUyrCUA'
p1369
I1384
sS'ySqKXdWrWSsMk9hHAORlSA'
p1370
I1385
sS'j3hyELLtfNyxWAkGPN1Reg'
p1371
I1387
sS'r-8eQ28RhnQPJdZXHcTXrw'
p1372
I1388
sS'eHorxrf-kxeQpMKbdH9XZA'
p1373
I5173
sS'yX6VJ8BaxLSN9zxq2qiHZQ'
p1374
I1390
sS'QhzzVcCXetK2hCctHsMzmg'
p1375
I1391
sS'RlI8vfhbYeUahO875DBFIw'
p1376
I1392
sS'KR2nyTod_DM_kTVgoLyGkA'
p1377
I1393
sS'F_5_UNX-wrAFCXuAkBZRDw'
p1378
I1395
sS'D6SEKcIne80A0AhwiEV2Rg'
p1379
I1396
sS'6JlwkVDeD32diglLWgYuzA'
p1380
I1397
sS'hI3w_HosQhXWH6S16wStUQ'
p1381
I1398
sS'qzDCMkf0vpk51UapdPoHPg'
p1382
I4164
sS'Q4Qfu-3vYtL1LRm2X1b0Gg'
p1383
I1400
sS'cMEtAiW60I5wE_vLfTxoJQ'
p1384
I1402
sS'f-iREBx-5CznQjIMWmoOkw'
p1385
I4730
sS'tvZKPah2u9G9dFBg5GT0eg'
p1386
I1403
sS'S0Pji5ZPQwlolC7vlq1lug'
p1387
I1404
sS'UKU5x7fgNWzzdpCh3PqS0A'
p1388
I2767
sS'ij1EkydgfT0fopex9SpKLA'
p1389
I1406
sS'6QN6BdpcDKXNS9Xq_7pECQ'
p1390
I1407
sS'iqF9DSNzYKPtPmBE5byK4g'
p1391
I1408
sS'gf4tyQgQOtVMkOdvveRHVA'
p1392
I4826
sS'3NnPbhmv_vEfPTBp2pnn9Q'
p1393
I1543
sS'2mguZPvbCa4lwT_ULfTmHQ'
p1394
I1410
sS'pMltyeuU4SjT6Y8YVy7HBA'
p1395
I1411
sS'aKhv49qQ1A1MDvGZ-cVh7Q'
p1396
I1412
sS'JnxK5dq85pivUK8J9Cyj4Q'
p1397
I1413
sS'58IIfnSCxKOEtQp3-dpeYw'
p1398
I1414
sS'NXUYqamg1hKTGfAwVrdgcQ'
p1399
I3632
sS'DAT62jCDMV-lW15CDZgyqQ'
p1400
I1416
sS'1p8Pu1pvAsuNtuZDtn2OkQ'
p1401
I1417
sS'ITa3vh5ERI90G_WP4SmGUQ'
p1402
I1419
sS'sLIn9oBM0aw9q2R9G1oCew'
p1403
I1420
sS'ZFR1aPaMDgWbzsBkVEHxQA'
p1404
I1421
sS'Ug0ujy9-jd0Oc2nk3KIotA'
p1405
I1422
sS'40jyU6WuoTpYPkg8tPClXg'
p1406
I1423
sS'G9Vb6yQ047TC3O_-GG4WZA'
p1407
I1424
sS'_cUtxCvCccwgNJzD5I0cDA'
p1408
I1425
sS'_V6qMBCSzhwx96FLB3CJRw'
p1409
I1427
sS'VxRCdLqDjVzCd3RGauIgig'
p1410
I2535
sS'8k3aO-mPeyhbR5HUucA5aA'
p1411
I1428
sS'5dSxCFW9nBJhi-yt_3Px8g'
p1412
I1429
sS'W7tKBCQ1XugMEDjB8ZBXqg'
p1413
I1426
sS'EUlfxYKZSO7esvntG3HfOQ'
p1414
I1432
sS'hj7o_BPgj-HdLAxdKqdx-w'
p1415
I4169
sS'V4TPbscN8JsFbEFiwOVBKw'
p1416
I1434
sS'DxAFsG89SX3IjV9wle9How'
p1417
I1435
sS'PQOHkTVWUoAxAkiUa3SRMg'
p1418
I1436
sS'VdGROLLl2il5-gXmdKkUMQ'
p1419
I3636
sS'rFfe3tmJG70bXqKK_ubwnA'
p1420
I1438
sS'o5STsEtfvD1Ig0J7Z-1uxA'
p1421
I4219
sS'KYtrBL_Cp1CudlGC1XiiSA'
p1422
I1440
sS'59Zmdh7FJ3xTn68D6uc-HQ'
p1423
I1441
sS'f66SRQPBM-MbiAVeOm4xUw'
p1424
I1442
sS'82ViORACpkJHfkElf9iZww'
p1425
I1443
sS'qRFGOcGpL6J25XuegTNPTQ'
p1426
I1444
sS'IBaDaTxp2yC_-AD2QscBOA'
p1427
I1445
sS'5qZb6nLd7gRnTQK6OKwAPg'
p1428
I1446
sS'irNQNBpwz1ee3hY4oLhyEw'
p1429
I1447
sS'KFKrsDRkeo7KqQCm3IN5-g'
p1430
I1448
sS'YWFbTcVnun8i03XnEU7kVg'
p1431
I5123
sS'nu4NZLFnJ57TIIwSsXd33w'
p1432
I1450
sS'fZaWWxwwHGtH-8Vhx7qE_Q'
p1433
I1451
sS'W2Q0C4C9uFpCAMIS93_Lxg'
p1434
I4541
sS'wZG2xlICfUkJiY1NdPJH2A'
p1435
I1453
sS'exAWpxarik6vghkh9h09yA'
p1436
I1454
sS'OGLkivfkMESvh-2Fkg3bjw'
p1437
I2773
sS'g4-c22KGny0yB2oNCDS-QA'
p1438
I4314
sS'Wb5Gs_FpWDYjrhn0luPd3A'
p1439
I4353
sS'IpvS0pJxjC6mNiK1MBSb4w'
p1440
I1457
sS'Reuq65EOFI938Yg8xgff9g'
p1441
I1459
sS'OfddPlzVNLSwlOTaeBGZKA'
p1442
I1460
sS'7GPNBO496aecrjJfW6UWtg'
p1443
I1461
sS'sDGwhNAQIubV36t_fex6VA'
p1444
I1462
sS'1P9BpFZ_d3PGCdytDTYJCw'
p1445
I1463
sS'R7St_jRlyZ21eusIPi_14A'
p1446
I1464
sS'o5PjjS1IxZ8rvBKSFZeM7Q'
p1447
I3721
sS'PTD6ocdGBUa-dcXS3Vr7Xg'
p1448
I1465
sS'pW9LvtC-hZ0PRAOUn7aZ2A'
p1449
I731
sS'QMqSgBqSrlRhz2B0UiORjw'
p1450
I1946
sS'__dUOXQ2Pa149eLgsL-tHA'
p1451
I1468
sS'om5ZiponkpRqUNa3pVPiRg'
p1452
I948
sS'D2epirooWNjvwTI6MFhNGw'
p1453
I1471
sS'F'
p1454
I1472
sS'jnB_saJqNfOmVoCWquhAzg'
p1455
I1473
sS'hQYc90YPvI5WAhxUF4Bo5Q'
p1456
I1474
sS'3Rn993btYslL-3D902Bxlw'
p1457
I1475
sS'odq8SUSIT8narMOKlZrg6Q'
p1458
I1476
sS'4D90YMyPxBtPbIpodbBmeg'
p1459
I1479
sS'kK0QDyfeSwcZl4gGilnW7w'
p1460
I1480
sS'KisZIfo92_OB_hMa7TvM5A'
p1461
I1481
sS'vM1IcOZ60ULNqCuJnNwnXg'
p1462
I1482
sS'CZQUtmO5NIY-bZWkCqHeJg'
p1463
I1483
sS'Uwu72w77MPox942_GnCS7g'
p1464
I1484
sS'hcCFyJJt3OLV1OtPlQeDoA'
p1465
I1485
sS'cSvwgRq74ElhrE6AQEm3DQ'
p1466
I1486
sS'oJXh6bJfAM7krX5MyxCf7w'
p1467
I1489
sS'rwx6UVjm8efnIroz8e_FSw'
p1468
I4551
sS'iwkoNii9w7LK2tNQJ6UCug'
p1469
I1490
sS'8YaRW6wCKTm12Y87vdOp6g'
p1470
I1491
sS'pTc2Mf2ZW-VbZGfFI_VelQ'
p1471
I1492
sS'FFa61BoWvUTxlweWGQ1I-A'
p1472
I1493
sS'rm-oUeqX0T3-SvaoGw2UJA'
p1473
I1494
sS'aqWXHhcR_CdmKmxggFOlEA'
p1474
I1495
sS'4qJME-01inmlf4ysMKPeNg'
p1475
I1496
sS'i3iYZMTxDoobkRS7pdxS4Q'
p1476
I1497
sS'rCmnApNqRK36uzdrnzXm0g'
p1477
I1498
sS'siVtjO8xrSxbrK-zqXCGew'
p1478
I2777
sS't1NmJ-g09NijXqycgF-evA'
p1479
I1501
sS'o75ucTEDF_vsjEJoiIXIAA'
p1480
I1503
sS's50ybEKVTcgO0rhu7bXKHA'
p1481
I1504
sS'N9tgUEYnMvdZSDDAZ46sJg'
p1482
I1505
sS'mGAgc73bhiO_xXvpLy2Org'
p1483
I1506
sS'ipleTHGh9KR8hO5U1yxzXw'
p1484
I1507
sS'sfp6PhgbQnemfeZTqfuajA'
p1485
I1508
sS'WuiEYopWZOWOuWQD87fVSw'
p1486
I4776
sS'm_H93eDKdiBlRv8K7Ffgsg'
p1487
I1509
sS'Rjd9Td7yYOqu0A1e2KDAyA'
p1488
I1979
sS'GpULAQqNdCCpZG0Ly6-5gA'
p1489
I1511
sS'ZH2BsTXtOrzgNLFGDFsogA'
p1490
I1512
sS'oSq0NKO2x_DEllpua-xgrQ'
p1491
I4326
sS'1fNQRju9gmoCEvbPQBSo7w'
p1492
I1514
sS'_5keMAmic7zzrnM5mVefBw'
p1493
I1515
sS'9v83UksZrkThOiE584GRBQ'
p1494
I1516
sS'aWG8G-xmfOr9jjyyUd_BTA'
p1495
I1517
sS'XrzkP-EPpql8cis-GlQ57A'
p1496
I1518
sS'uL-3W26bfqP54fENoj7b8g'
p1497
I4460
sS'WJnEifJRkI6bCH2iw8brFg'
p1498
I3651
sS'_ntA5HPDzqBgwg7S3s7w7Q'
p1499
I2776
sS'qNyBFqBQeSOSsZvcHWCfCQ'
p1500
I1520
sS'oQwFLohuwcJYMd0WhCph-Q'
p1501
I1521
sS'HpQ6AMW-v2iDFPOE6fkm0Q'
p1502
I1523
sS'iZNs250Zzjga4wSOU1AYcA'
p1503
I1524
sS'HiYPfYJD4VN_jvXwxs6H8w'
p1504
I1525
sS'exEElE4pG-ZwoCMwoYddeg'
p1505
I1526
sS'_L-rOt2Bp0hqoZNiw6hmSg'
p1506
I1527
sS'WcxbtSZlF4DT41TIaz0Itg'
p1507
I1528
sS'8_APo4b5Y2lDlP681zvROA'
p1508
I1530
sS'310zgwPQRoe63E1pzzMVPA'
p1509
I1531
sS'EWv-QUwo3hMfoM04sIXdUw'
p1510
I1532
sS'kkPgJv6KBFN15caG7NYYlg'
p1511
I4669
sS'6agmDWsBMxZBc6qDSZworg'
p1512
I1533
sS'Dw5k44c-nkOexdaqUtcWCA'
p1513
I1534
sS'NN5jldDW0Puf8E3ZZjKqsg'
p1514
I4698
sS'r0yj7wRAs4mNSgp_OvvstA'
p1515
I4795
sS'ENgL9AxV7uu-v5EUCpF69Q'
p1516
I1050
sS'iHB75LCfFkIC1Oj86CqT1A'
p1517
I1537
sS'1'
p1518
I1538
sS'p4UcEYTLJyh96o1R8wrJaQ'
p1519
I1539
sS'p_8G3mrojESNVJ4E-zvGKQ'
p1520
I1540
sS'Eva274V0UhvqY4owmBEu9w'
p1521
I1409
sS'bbswJ3DA2TniQCqn4kLVfg'
p1522
I54
sS'U-C0f8mLTaQaZPYq-i7m3g'
p1523
I1544
sS'3mhdWROwjuXm5RlH-VuwHg'
p1524
I1545
sS'9C_h-H1Z7Xz7dvbgsBrnSg'
p1525
I1546
sS'SrDqrIqZl-gtVYbINIxYoA'
p1526
I1547
sS'MbC0xPzIdGkFMCpPb8yWDA'
p1527
I1548
sS'HZ9ep6UdCW0TmTTAfjzYxg'
p1528
I1963
sS'qcvLeO7CUNQLZ5cgaBKMDA'
p1529
I1550
sS'jAYP7ALlgpYfJCjGqvMPMQ'
p1530
I1551
sS'dmyZ4TDN18z1-mRRdzY_8A'
p1531
I1552
sS'6nvUppVogRTTwZCgaYCPjw'
p1532
I1553
sS'7Xpb51viDdOaV_89olxp5w'
p1533
I1554
sS'PwRnNzDn4oKsL3g64yd2Hw'
p1534
I1555
sS'gJBSFLeiof3gAfAMaCOqbw'
p1535
I1556
sS'yR731OlfuI4585U4_HhHlg'
p1536
I1557
sS'fHs-cV7C-Ps-3qqMfqT-Lg'
p1537
I1558
sS'SRJV_DzWUG_KlBoCvVN4NQ'
p1538
I1559
sS'mVA4IeYyVKPUWRrN5oplMA'
p1539
I4558
sS'9CWr1HukCWdjW-5zTCXVIA'
p1540
I1561
sS'BGzavA_ddMr-jGmhArv7fg'
p1541
I1562
sS'BzLUyHSJrl-lUVWw9rqlvQ'
p1542
I1563
sS'J-rYGAr1hcyt7rT5MiVWFQ'
p1543
I4024
sS'SBjQX8BNQk4KtLVf8W14zQ'
p1544
I1564
sS'IeCTX3TSQooqJrRsj5-NNg'
p1545
I1565
sS'sBswn4u5KkmMyWVCV8mTrA'
p1546
I1566
sS'F1iqe4P-wgJ2zBHgZqtXUA'
p1547
I1567
sS'YQPDBJKKFFseQybsvo2rog'
p1548
I1568
sS'njjAMF1ELq7SMppy0HfzgA'
p1549
I1569
sS'LIvR3XdUX-7VFwICd7dYRw'
p1550
I1571
sS'w-2UqYpO7OozweB6lL7zEQ'
p1551
I1573
sS'xzvTed9al7cOEc0S57kb3w'
p1552
I1575
sS'RTLyNTkD8_d_wLom5cD1yg'
p1553
I4562
sS'q'
p1554
I1578
sS'gjZp61JZaqcLrKjEDVSPIQ'
p1555
I1579
sS'AJcwRgdkHtu3kOrEKlXq8A'
p1556
I1580
sS'kxj7TPtJY2zbEjGV0PYfAA'
p1557
I1581
sS'j8fbMLXV1XvnoznuwbG3Ow'
p1558
I1582
sS'SbrDl9B69acb3PEiTCG79g'
p1559
I5066
sS'd8KR5c1ievS0C53h4fhEeQ'
p1560
I1583
sS'9hMqNBBpTl3lBy6qCAyu-A'
p1561
I1967
sS'hY-C5hrYGYfdZQiX4P87vQ'
p1562
I4565
sS'k3fBjEZYCugFaKTHQ4VnSA'
p1563
I1588
sS'hPuQIudnLHBJaJL7swpB8A'
p1564
I1589
sS'kIFja02Dxs7KdUHj_rY0nQ'
p1565
I4566
sS'2Jmf6K5nbWGVAjbPRwrqsg'
p1566
I1591
sS'h3CUVrO5yzV9mWkzye8ajQ'
p1567
I1110
sS'RV1mwV2sebVjEu75gcPcvw'
p1568
I1593
sS'pA9wbuYcK3GArQA8gS85Lw'
p1569
I1594
sS'IU86PZPgTDCFwJEuAg2j7g'
p1570
I1595
sS'8gYDk0qh586uzePzzU763g'
p1571
I4658
sS'wAw9FHMiOZd9ROoc5x4DpQ'
p1572
I2793
sS'Q1jSXhDdn_H77WqXL6WICQ'
p1573
I1597
sS'DecNq9BYtMwHhgdnPNGbVQ'
p1574
I1598
sS'8zXgNCkusOHMwh5Tj_8yCQ'
p1575
I1599
sS'4Y81J2Tdq5XAnkeYmCZ2ow'
p1576
I1600
sS'ol4cgTO1vuqTiTnAOG3ckA'
p1577
I1601
sS'kkTOV5bnE9hHb5V_zd9b9g'
p1578
I4786
sS'MmEYowrsA4j3K4gc9Th53g'
p1579
I1602
sS'rCx7tb3toOJUsvdOeqYY0g'
p1580
I1603
sS'0etjqbarS9quNVP-F7lHbg'
p1581
I4907
sS'PWR1pzxJysOQsc3eG7SkDg'
p1582
I1604
sS'kwjfwrE4Qs6ZblePxNeQcQ'
p1583
I1606
sS'Oi1qbcz2m2SnwUeztGYcnQ'
p1584
I1607
sS'KdvF4hhsMqxe47yiS1netw'
p1585
I1609
sS'OH7BobSil_ds0tLGdpmn5A'
p1586
I4571
sS'VNA0Dfg2QeCB7jz-7hL6gw'
p1587
I1611
sS'wjRFWRNIyw-dWDK6C9OPxg'
p1588
I3667
sS'JZ7RPFpDhPHa4ay_wTnRDA'
p1589
I1613
sS'-Hxvjz-t5ttsuH6H1osA4A'
p1590
I1614
sS'I1dKh4olStlU7i-hEi4_TQ'
p1591
I1615
sS'sE1T1wT2alHRdy5iRezN0Q'
p1592
I1616
sS'PmlApgstFa5Y8BRroTe07Q'
p1593
I1617
sS'sTcYq6goD1Fa2WS9MSkSvQ'
p1594
I1618
sS'r0PIAIRRsaxpF7z9SRCT1g'
p1595
I1619
sS'fr1Hz2acAb3OaL3l6DyKNg'
p1596
I1621
sS'GwlrUwkULm4ZLN-Kum5nag'
p1597
I1622
sS'h_2NGTYvjOc38cjx90rM5Q'
p1598
I1623
sS'dRaLq9sF45RYHhKfUd8NMg'
p1599
I1624
sS'a4mO387_O77ebmv8AlQB3A'
p1600
I1625
sS'Xnqbsqex72_KYsOk4AbqDg'
p1601
I1626
sS'p6qMidPaJ96LgB_9z7xZVw'
p1602
I1627
sS'MhHtPfvJXweF4xwK7Hm5yA'
p1603
I1628
sS'xxB5F6TJ4J1MlNufCdqz2Q'
p1604
I1629
sS'VD8Ox-akHloK3-QV3FxY-g'
p1605
I5000
sS'mjOKUSdIqxFPSYMB-MmS9g'
p1606
I1631
sS'c3xkFRo38JB7T0xgiPOEbw'
p1607
I1632
sS'waN6iwcphiVEoCews4f4CA'
p1608
I1633
sS'fV4b7lS8Vr1JL8V4ac8-FQ'
p1609
I1634
sS'_vvfn7829XzLc8_l9ne2HA'
p1610
I1635
sS'0o8HUzggoNKay9-ZMj3HqQ'
p1611
I1636
sS'FdPrn04vvhtJPum9nPCUeQ'
p1612
I4802
sS'cFi7o039_xwe7s53yKPdAg'
p1613
I2801
sS'BvIIvQqPJ2cKC8eaSxOFpw'
p1614
I1639
sS'2vnRTeuIswvol4AnG16BiA'
p1615
I1640
sS'ZZK8ovAAFcpdSEceflkWeg'
p1616
I1641
sS'XiLxIJThWsE0x4d0IeSPsg'
p1617
I3568
sS'qt3xFPEQ3kI9J7gRErQqHw'
p1618
I1642
sS'AEowRtLGb_AdqFAZ8e6C9A'
p1619
I1643
sS'NpZz1vxjm2mpQiQL6JJG_A'
p1620
I1644
sS'iT1AA74QFn_a0Xq9-ggSGA'
p1621
I1645
sS'E43QxgV87Ij6KxMCHcijKw'
p1622
I1646
sS'5C1ljRcCrjKrIbJ2U8VQRQ'
p1623
I1647
sS'bfsX2VxPkZxiA-Hj-RHT4g'
p1624
I3672
sS'Z0yHptbS93271s_h6LJOMw'
p1625
I1649
sS'WNZfkL4DBspueoGSUOMAqA'
p1626
I1650
sS'2Qfa3o72sq04_MCUxy3Shg'
p1627
I1651
sS'T4bKpy8-BT27L_nfWdlVqQ'
p1628
I4399
sS'my6eQZaumNlr4C90WNfvkw'
p1629
I1653
sS'AOFDB60pjiXby08lx5HHYQ'
p1630
I1656
sS'YWJFNLnTGygKF29aQJC-Rg'
p1631
I1657
sS'bROr0S4_0i62dg4OIZ40TA'
p1632
I1658
sS'vhSV8oeKlNGdvB_LIy9lyQ'
p1633
I1659
sS'ohYnCSs6eTl7O6o3UySpgg'
p1634
I4149
sS'Cjfgh0v54urwg628j4XkMw'
p1635
I1660
sS'yvXEJcXRtffR2GuWULbRjg'
p1636
I1661
sS'xUcV0ksAXkk7uuIaIsZ3-A'
p1637
I1662
sS'Db80SCez0BdYaHdC0xmzoQ'
p1638
I1663
sS'xT7RQksnkdGnDiu9EiPsWw'
p1639
I1664
sS'3unnOhHuozEoDDn4s6c-Mg'
p1640
I4580
sS'BAo6ZQsIk9tpHn_Qi260DQ'
p1641
I5064
sS'lhKHdK38TFdXey00JZ_f0A'
p1642
I1665
sS'ofeLGyYo5yACoVzahgExZg'
p1643
I1666
sS'N--OQqLEjW24WHZrDfI_JQ'
p1644
I1667
sS'lh9MXK7dzLSayIaGgKvLtw'
p1645
I342
sS'ENSYT8atZM8gus_xXDzzJQ'
p1646
I1669
sS'A0j21z2Q1HGic7jW6e9h7A'
p1647
I5170
sS'OT-0VdNkBh0HOQm1apHGNw'
p1648
I1671
sS'mx0AZEmzuFg9ZQ2i0Fak4w'
p1649
I4781
sS'JM9jODLEp8_AZeF3TwftXg'
p1650
I1672
sS'--2vR0DIsmQ6WfcSzKWigw'
p1651
I1673
sS'oiXLUiDACGTV_uKeaZjiug'
p1652
I1674
sS'xGS_mlHcCUipSKXrHk6CGw'
p1653
I1675
sS'RSYQFwanogpeWezcl-AR9Q'
p1654
I1676
sS'kNV9dPP9EQod-x0SSVaV5Q'
p1655
I1678
sS'PXrgXkdVga0eH63nw1mFYg'
p1656
I3454
sS'jhvreOViehq5zA4p2dgSVg'
p1657
I1680
sS'JvQRbZYdMGuuDqTArles2g'
p1658
I1681
sS'SuUCq58i_QkZ1v1wTt6BXA'
p1659
I1682
sS'SdyD3VeFsrzeR6WoOhhq4Q'
p1660
I1982
sS'0ygWZ_gXF8qTm0bY95JJqA'
p1661
I1684
sS'UKv5imCvBbxEeGFlphx8pQ'
p1662
I4343
sS'CKE7bImVY81KJD8PiiuDPQ'
p1663
I1686
sS'BwTPj8XS_iqdSTLPBVMs1w'
p1664
I1687
sS'VIdMhh8uAQJqsXiTve4g3Q'
p1665
I1688
sS'No-z4NfZSN7kOdSucW6eaQ'
p1666
I1689
sS'IeV1IcxMzPWji8ZYXDzmUw'
p1667
I1690
sS'W7MAh4eMHzpkQyNylSV4jg'
p1668
I2810
sS'4eR6hYFJcBHoAqhuOS07ww'
p1669
I1692
sS'Q-bBychImze2Yj1R0ifoMQ'
p1670
I1693
sS'9kIcMeveJXxWGVOVdXyQyg'
p1671
I1694
sS'Xk4CO2zXLjdr3l4y7eo9fg'
p1672
I3678
sS'VlyHGaMz3gbbQz5hytCeGA'
p1673
I1696
sS'-x1516ZG5GllZiBjDQlRkA'
p1674
I4366
sS'PAbX2enaEQKFQoPgwB3-_A'
p1675
I3760
sS'mgytZAasaiBf-END4aZD9w'
p1676
I1698
sS'pzwPuIDTpsd_ykGJ0CtuCg'
p1677
I1699
sS'Qt6t6i4RDbgXIOg6EXUbvQ'
p1678
I1701
sS'QBXAIu1Vm-nKXUwBqZ5H7Q'
p1679
I1702
sS'SFBfsySKt-Rb5aBovef78w'
p1680
I1703
sS'VJ6gRN2AGplIhnyVA_mMxg'
p1681
I1985
sS'iovWFbA1UtMGDJ4C8hbhYA'
p1682
I1705
sS'RO3vznPVVw5NWcgfP3k17A'
p1683
I1706
sS'OJqyJUK3QfRdcHCWI5njjg'
p1684
I1707
sS'npD9KeIpB7PX3OwBMxZ3EQ'
p1685
I1708
sS'4mrT5PzEYZymN_lyxEU1cA'
p1686
I1709
sS'Kchj2U3yTo1hOZoiOkcErA'
p1687
I1710
sS'Bjzw7ql1EgoRu9TYD925_A'
p1688
I1986
sS'm7iiJlloCRfWaCPwQwTmpg'
p1689
I53
sS'SIZOfo7jTjCXnL8ZtpM2aw'
p1690
I1713
sS'y22jM83qCgsNGryv9328gQ'
p1691
I1714
sS'sDjLntGYVuhp4FlKz33P_w'
p1692
I1715
sS'jQB-yh5WoOPMrfqwZEBfSg'
p1693
I4158
sS'jc3jhh2iQ1dPnT7rPI5xvg'
p1694
I1716
sS'alUuOskFSl1bODjnce2PpQ'
p1695
I1717
sS'4FE8md9fMr_jZFNbcOmHsQ'
p1696
I98
sS'nZpSxSHct3faGgonk0nmdw'
p1697
I1719
sS'jkn6J1-sl5AaYkfXvYrVWA'
p1698
I1720
sS'MMf0LhEk5tGa1LvN7zcDnA'
p1699
I1721
sS'_SVfoi3YUFNHswsfZUO9mg'
p1700
I4901
sS'oYWILlXqqbUd5M6AyhQ2Yw'
p1701
I3685
sS'gzLNJYcykoNlod6C2csdUw'
p1702
I2300
sS'VSINPig75DiGswnie1xxYA'
p1703
I1723
sS'AhtrCtx93r9DW13RdE_XAw'
p1704
I1724
sS'g'
p1705
I4322
sS'eyWeowiifi012PXN5BFU0w'
p1706
I1727
sS'BWoIzHQKl9lyJSRYHxoMVw'
p1707
I1728
sS'2PjSttJjhmhFBaHOoiXHpw'
p1708
I4620
sS'iY41hl-J7Nw32spi0BalUg'
p1709
I3687
sS'D2WBLgdkgS69phazNyk8fA'
p1710
I1730
sS'CY9iLsE2z_yLhLqJdD1WGw'
p1711
I1731
sS'j8m6Qn1aCwSYEBbXlVGgGA'
p1712
I1732
sS'g2sguk8QpYuzVM72jOKM3A'
p1713
I1733
sS'iipaDtoA1zHFkbAF3Gn5Rg'
p1714
I1734
sS'DVEU8hxDa-McxIjPpUGwrg'
p1715
I1735
sS'mO2A3V0e85phtqO4VNwIFw'
p1716
I3640
sS'U6ZW22QFOIgkuV53emzIbQ'
p1717
I229
sS'5wQrUNttU_OWWNo9N3Gq6w'
p1718
I1738
sS'VgtcRwMPiAEeuPsayXB4kA'
p1719
I5132
sS'zpWizDgUk4-rQJXdjiBY1w'
p1720
I1739
sS'aYM006S1U0VwX9ZTjR3KQg'
p1721
I1740
sS'33O8Q0BdTl-PXh2lKceYgg'
p1722
I1741
sS'q4jhCWLkC6WA5ZiN6hWf9w'
p1723
I1742
sS'ojxS1v-8nUvEEx4DlsPQrA'
p1724
I1744
sS'_ADnCcFfZrKuCUdv2SD-PA'
p1725
I290
sS'hHgNg6u9P_Ym5wLXmnoBcw'
p1726
I2038
sS'dMbMRfmX5AApq-9ZvWjdrA'
p1727
I4883
sS'FQRB0z2EJ-qXbMgRhFatPw'
p1728
I1746
sS'EKdyI4jpUF29YtPkKiCtcg'
p1729
I1747
sS'9MT1ZMYqY8YMZjF0odNnkg'
p1730
I1748
sS'Dd-TkEszFMkSF-vRih51fQ'
p1731
I1749
sS'BIdFgt_4owlS1VUcTuZ4fA'
p1732
I1750
sS'cBIkLz-J_qyKAtFCZy9dUw'
p1733
I1751
sS'rUV1FUhji5xMjNBpcq5SXg'
p1734
I1752
sS'kMF2N1HAAOjNBUE3U8atow'
p1735
I3943
sS'W5spiZ9GhAJDtdiYbnBN4g'
p1736
I1754
sS'm5cBT7OYfn0HM0d-RCsdZQ'
p1737
I1755
sS'3cbEkaaC13_IPo2iKUYcgA'
p1738
I1756
sS'lQHK8ZRMmYu2e9eUwU23cw'
p1739
I1757
sS'JYxt5_1tAoIVHYRZ2PkKcw'
p1740
I1759
sS'SUAFCKtkx8RrQ6EgJQIVrw'
p1741
I2824
sS'mhp7ixQA9dqRqXKYcW3F7Q'
p1742
I1762
sS'rYbYxbTST-kcYPUQS1X8pQ'
p1743
I1763
sS'OPN-dDUBkH7uH-G8nOnskg'
p1744
I1764
sS'tH0uKD-vNwMoEc3Xk3Cbdg'
p1745
I1765
sS'j5yfS1QjGwNLQ0h4_wDyxg'
p1746
I1766
sS'R3jMcisnWU-gjjSXgWNXvw'
p1747
I1767
sS'WLM0BPbd_eyv044tCyXgRw'
p1748
I5129
sS'BjtJ3VkMOxV2Lan037AFuw'
p1749
I1769
sS'2WnXYQFK0hXEoTxPtV2zvg'
p1750
I1770
sS'cjotiAHFSbFuvbxTWmGi1Q'
p1751
I451
sS'QgPGXQqSwxhEAY5zUq3aCg'
p1752
I454
sS'mKfW-Cv7JCsH4sWUpQ8sYA'
p1753
I1773
sS'PnBwDitaPUodtlSpN3ELJw'
p1754
I1774
sS'-Jd_4LVKGT07AerNV39udg'
p1755
I1776
sS'gNhNKOnQHDOElrtBohBt6Q'
p1756
I1777
sS'tWBLn4k1M7PLBtAtwAg73g'
p1757
I487
sS't'
p1758
I2311
sS'huJA3xy47N6E7XY2FrkHgg'
p1759
I501
sS'UVVn8JcvIZ5fX5tE6Ne4Tw'
p1760
I506
sS'2'
p1761
I1783
sS'IxrkMwtW1emHp7cifyq40A'
p1762
I1784
sS'ZNQgqENlQhmoyqAdrsv1OA'
p1763
I1785
sS'7nhs48Tu5WgzCsNlmnZElA'
p1764
I1786
sS'GfObNIlTVGhELOFJsqjRhg'
p1765
I4373
sS'ScKyghUl8MRWkL3x1N6vpw'
p1766
I1787
sS'BxXEXnFX8xeG7Y56-XXHZg'
p1767
I1788
sS'fQuLe-KuojSco4DRbcFpGw'
p1768
I540
sS'o0WGr8L3BWfH2Bslpnqw6g'
p1769
I545
sS'mQ5bv7uCuFiHTIHCzT3Tyw'
p1770
I554
sS'-OAtb3LIcH2eFRzlFfbS7A'
p1771
I1793
sS'yXIFCpTAJkKzyoWXm4opqg'
p1772
I559
sS'98v_f4MQhbAK-SKeSATEEg'
p1773
I1795
sS'opPpHVIp8SKHMJg3_y5Lew'
p1774
I1796
sS'-gokwePdbXjfS0iF7NsUGA'
p1775
I1797
sS'mLiGZsGKUZo5tGh_BdXtwQ'
p1776
I1798
sS'58zhqwfGYEl92MZusTsYJg'
p1777
I585
sS'oNlBwoY4wRePHlXkVA8s5A'
p1778
I1801
sS'oHQYlPQ2wjK46vfjqTa9rA'
p1779
I1802
sS'7GT19rrk5pA_5KIvbzTiag'
p1780
I1803
sS'8AwcaBJjiMpQ__FPxktwwQ'
p1781
I1804
sS'ixBigHmSphGD4pPw8tYCyw'
p1782
I1805
sS'QuZbJquRtbY9O9JrB9NpxQ'
p1783
I1806
sS'rcU7ysY41qGppbw4pQgjqg'
p1784
I4820
sS'Ffa1cXIvFAy8H1sorICaiQ'
p1785
I1808
sS'mnc2mcLdiWK5l3aWZWLvfA'
p1786
I1809
sS'Wxd-EKF2Z4RHZUmwQ6Eeew'
p1787
I1810
sS'oKrct4Hc8hZNMYXecitLCw'
p1788
I1811
sS'VnPmgtw7s27gsVIEC-Q8cw'
p1789
I1812
sS'EiT_pSuIb08oRn4CfwfMJg'
p1790
I1814
sS'PMT94wJvyAQdG9YGZerYAw'
p1791
I1815
sS'aOKFxiYcOFFn9Tox3sc-4Q'
p1792
I680
sS'-NbeVN5tnwdyYAvdNkKMjw'
p1793
I685
sS'ugGd3ctRaKfc19JHxcrgyQ'
p1794
I1819
sS'W7iLDP6GY4joKZ1zSCOEfA'
p1795
I1820
sS'ttQaIO8SD70rLwnixdudYw'
p1796
I1821
sS'VB2FbK8dq9Poz-ZPGXgmeg'
p1797
I711
sS'DEOH_z7QaXnrH7vnmDl5KA'
p1798
I1823
sS'yOixBUTirIrxyup-8jb_Ww'
p1799
I4687
sS'awQhT121Pe0R33sukfTyuA'
p1800
I1825
sS'bxJfL_Vl1DxFiQSaVoqCsQ'
p1801
I1826
sS'khvn7hhX08g33N5niO676w'
p1802
I1827
sS'-24B_nkBG6Et1_QJecnN2A'
p1803
I748
sS'tgV6tsYQ66DZ3LQKvtC6cw'
p1804
I1829
sS'QjZ3eGdAo-wlUJJna9GyWA'
p1805
I2943
sS'LZwRtRSIR7Jv6LdBfqQyfA'
p1806
I1830
sS'uUVrIQ4f6KcIOO6xA0cgjA'
p1807
I1831
sS'ysCBsXWPB-LAiewVS3jZfQ'
p1808
I1832
sS'TrVUihRXTCr3WpfIGFP4dQ'
p1809
I4499
sS'lXKjU1d7uy4aG0c5dNTATw'
p1810
I1833
sS'35PnyEl7ZFyjXcWguvls9w'
p1811
I1834
sS'q10s3mM6fI4AP9pbf7PXGw'
p1812
I1835
sS'jSdiPiaO_FI9Ic3raKbU1g'
p1813
I1836
sS'6X1D7uMgjvk1xAVdfqO5bg'
p1814
I1837
sS'xN-xoLhTHUFfTS_BMGG0xg'
p1815
I3705
sS'NaSI8Xl97MnVZ627i-D_Kg'
p1816
I1838
sS'_9EIx0AMRspVvWds8PHsLw'
p1817
I1839
sS'nVbstcP76ZWpIKOq3Lhhog'
p1818
I1840
sS'VHdY6oG2JPVNjihWhOooAQ'
p1819
I1841
sS'LHsCa_aVta4UbbrcL4hE5A'
p1820
I1842
sS'Ggx8iUdJ7lsQSqXRuclXtg'
p1821
I1843
sS'jZaW5XEiEuZo_JhpxMBDSQ'
p1822
I1844
sS'JcdVOBYNl5wmpuV6ybJtpg'
p1823
I859
sS'Cvvu2V_FO3FjxIHpartSMg'
p1824
I1846
sS'CH9XhZWmcLYVAlzhwrhMvw'
p1825
I1849
sS'-mk08-xoUDuG5GWK6CzUfA'
p1826
I1850
sS'cST8Zaw_m73cMYPYA1m1cA'
p1827
I1851
sS'LuijV0J5TEiQn7c4eW6ttg'
p1828
I1852
sS'29LapB2kzCj0dwGjJ_aX6g'
p1829
I1854
sS'GrktSJ7Bv9t37gwDLIlAwg'
p1830
I1855
sS's7DOGaUBVoyVgwdmCQWiVQ'
p1831
I1856
sS'ncIHRw4Vx3Wh9mZhLZxB7g'
p1832
I3413
sS'cZ-OJIen_SFhBEh0gUtzoQ'
p1833
I4533
sS'm-2OHy6aP26oefPIiiTocg'
p1834
I935
sS'omtZLg0ryIeaJfLTM7JPIA'
p1835
I941
sS'FjNgN6Dk9fh4NatwthoFgA'
p1836
I1862
sS'KnLyt9JZw8QUr7QAEkguow'
p1837
I1863
sS'sZxXpvmBUN2fSCtK_BZFoQ'
p1838
I5118
sS'Ud8tcgnxp0w0qBtXt_DKOg'
p1839
I1864
sS'kSyhGgF0uuFDleLcgyTSgw'
p1840
I1865
sS'nvy_iLAKfNoMHPBEj8QhFw'
p1841
I1866
sS'jI5grCzPrcpYgqtNVygWRQ'
p1842
I1867
sS'L27OShvycGmVOkAxD1h86A'
p1843
I1868
sS'ziiMYejVJAjbkRjSeAzrbQ'
p1844
I1869
sS'FzemMECB9UV6UAPqg3P88Q'
p1845
I1870
sS'3Vd_ATdvvuVVgn_YCpz8fw'
p1846
I1872
sS'yTMU4Fj-CA4Q0cIOctTAXw'
p1847
I1873
sS'Du6bF8BUoJsIAuC0J3KLIA'
p1848
I1874
sS'Rto4xWr5gXA2IbrfyAn-Xg'
p1849
I1875
sS'w7RP1MZad3YO7Vjgp3s3Dg'
p1850
I1876
sS'Lj7OA1NqFUl0CNlR4kV6RA'
p1851
I1877
sS'chgTnp84tlV4UUJlfIVJzA'
p1852
I2854
sS'CDvhiRiczAq0M5pktyiyog'
p1853
I992
sS'PoAc1N3GaOeWdBVSFsleig'
p1854
I1032
sS'ff218ATsyJf9uxCn6l6ygw'
p1855
I3323
sS'wZe4FORQ3FjF6TFgadb-pA'
p1856
I1880
sS'pb_gZKh68AlOIHLJ1KQ9Og'
p1857
I1068
sS'oMEpAhyxo-2QBxN2mPvn-w'
p1858
I1882
sS'avv5ziK1zMoADHTktRcfUA'
p1859
I1076
sS'-l9giG8TSDBG1jnUBUXp5w'
p1860
I34
sS'fCiXeYNwrwpM2MGilA1ViQ'
p1861
I1885
sS'o4tYl3Hz0oDfpNn4k02DCw'
p1862
I1886
sS'xy-G4jgmRJiosJwHZKdV2A'
p1863
I2897
sS'U63YRWMbyS5yvSZfaoi9ZA'
p1864
I2775
sS'y4XrPBUdbzXUCkkjfnvDYQ'
p1865
I1887
sS'jOxqMuRREc6i-X0T6vltUw'
p1866
I1888
sS'kZnSGYEx0mLVGroGtZiXIA'
p1867
I1652
sS'nnwBdqGHIAJQ5QX9lHOtrQ'
p1868
I3784
sS'88KYqN570RslBaNzYqdhCg'
p1869
I4469
sS'TCSyul4Oj5IFvW-_Omeewg'
p1870
I1890
sS'D5uMny1pAVWhNGDvFDPp8g'
p1871
I1147
sS'YdFcEQaOCef-ojBAJ7Mxjg'
p1872
I3714
sS'0QeJC2inz6P-OVzROU_LNw'
p1873
I1893
sS'q01khtt3I3bWBvHGxwA6vA'
p1874
I1894
sS'TiPH2ZwSX53uK7IvFSHVYg'
p1875
I1896
sS'ytWFR6cNNhKYVlFdQjkOww'
p1876
I1897
sS'iEONL-v4W46yliYsovCP_g'
p1877
I1898
sS'CtT0To4GaUdTJ7MhojlW4g'
p1878
I1899
sS'VrK6rT-on0HuhPINykRlvg'
p1879
I1900
sS'odb19pSgJ4zr8fleNfenYQ'
p1880
I1901
sS'6yw_4m8IBhdPeAvQNbFMDw'
p1881
I1902
sS'E0hnzH2Kx50pYjIOhMxfuA'
p1882
I1198
sS'iCYMf_sHRevmzWg8la-LVw'
p1883
I1904
sS'AGraTma9eEgsiJFDIy6tbg'
p1884
I1905
sS'L2JUm1kc8M3ji-Ud2HUBSw'
p1885
I1906
sS'JPH-WOKa6EBMlpBGLIPuiw'
p1886
I1907
sS'A-IkCqnYosZa49XD9qiSww'
p1887
I1908
sS'j_UQ3oeuKfJGbtkekPPDfg'
p1888
I1909
sS'qIDy9zJfCuqxy6A3exPe_w'
p1889
I1229
sS'C6LV0p8L6IfBfh1YFRkWzQ'
p1890
I4880
sS'SY1A9bpeEYHiVIDZtsrj4Q'
p1891
I1237
sS'JIaRKMllnRX22LE_kS9g4g'
p1892
I1346
sS'Ty9gWdFWh8Ka8ChN2FLovA'
p1893
I1913
sS'V0c-AS2FFCeSaV-3JfG5vA'
p1894
I1914
sS'zPNrEv30Piqoig3YG4en2g'
p1895
I1915
sS'33OzyvMjDhGTUJubr4CWIA'
p1896
I1916
sS'2EmXMRaEsMxaA_uYHollaQ'
p1897
I1267
sS'-shHTy1CEmSMPVSehdASaw'
p1898
I4096
sS'ncAOj5Xz-XS6bpSnTWp3tQ'
p1899
I1918
sS'SRqtqW96nDIxtDM7qc1YGA'
p1900
I1920
sS'rnfgjemszUlQx6U_-PO63w'
p1901
I1922
sS'qUgWLDqYHSxnHHaLfLBZgQ'
p1902
I1923
sS'vimEpZnvi38O0Vz5uaNj4g'
p1903
I1924
sS'JN9u_i6GUzp6SbafK8XI-Q'
p1904
I1925
sS'6PEIKIibsT3NkG1THRfJPg'
p1905
I1926
sS'wLh4YepDaBzQ1JMrj5fDzQ'
p1906
I1928
sS'NVei24-9k5GIZNRR1xGcRQ'
p1907
I1929
sS'dplh43OlE_Rime4bFXLT6A'
p1908
I4816
sS'sGYrxVCEJGGBArWI1LUgxQ'
p1909
I1930
sS'Q3q6jppP-2bYL-jRna_FSg'
p1910
I1932
sS'2y4EC2UKWwzj33OpK17Edw'
p1911
I1374
sS'61CBp_ligrPMklHnuBFkZA'
p1912
I1934
sS'7XvUlAuIRF9IhWAvlr5U7Q'
p1913
I1399
sS'T2h6OlazEQRU9y4j1AlgIw'
p1914
I4967
sS'4ZfcCa4m5RWvO4EFzfYm1A'
p1915
I1937
sS'HATjgnvjgycm0BwbpP5oMw'
p1916
I2541
sS'qMMUBzhArKwN34VxlAqwHQ'
p1917
I1939
sS'kv9Vg5FbJiFgcNQ_FOJ2Ng'
p1918
I1940
sS'3LMZ79mM8jGLMyCa6-D4nw'
p1919
I1895
sS'3'
p1920
I2022
sS'TrU49Ydk2ZMjlh0rtOVj7g'
p1921
I1943
sS'ShE-cXiI7VwJ8GMixw6JOw'
p1922
I1944
sS'W81-CPVrM9c6F8XiNuEUvA'
p1923
I1945
sS'lYQk0R6sPfo3WeX-l_5BuA'
p1924
I1467
sS'RmMbDOMp_BFS_kllQbRNxg'
p1925
I1947
sS'LNQylgySLXYSiAe3i_nvYQ'
p1926
I1948
sS'Kl7uOQWLBCmQN3phUx9tWA'
p1927
I2024
sS'1g_ajkmxzivqpY8E9s9sgQ'
p1928
I1950
sS'FIDPP65G4FxtZfqt5HwWWg'
p1929
I1951
sS'c2I-wuSbWhtxmKj0lKTgxQ'
p1930
I1952
sS'_jXd74oZFTB4V-p2mdiKdw'
p1931
I3773
sS'AnpIbinfzqdoETYZ9XqQ3g'
p1932
I1954
sS'DOvSsRXqRZe-wogYKGzHIA'
p1933
I4029
sS'9_dHJM9z0Pn_4W8v6u4fSg'
p1934
I1955
sS'yaBIVHDxaUBN2YHQ8-YiuQ'
p1935
I1956
sS'hq6wwhgImByBXH4bnyY59Q'
p1936
I1958
sS'uwy3e_csX0iE2R7FmMqGMw'
p1937
I1959
sS'PauNerg-kHRpoqLwB6F5CQ'
p1938
I1960
sS'H'
p1939
I1961
sS'ElxoM6w2NxZp6amnFUok8Q'
p1940
I1962
sS'fmzIm7RxEdii5Jz44PtO7g'
p1941
I1549
sS'GJbBBd2Ie7i1gnwPiyYRVQ'
p1942
I1964
sS'HdQ8mcCXNxUqsFgTfbPuzQ'
p1943
I1965
sS'xxL-DwwdT5VGvss9mCzOGg'
p1944
I927
sS'Pc6_UJ0odt5T5og69kxziw'
p1945
I1584
sS'il64P3G-9k2-8r0UPgzXCQ'
p1946
I1968
sS'7ziWZULyiZv2TesYNMFf4g'
p1947
I1969
sS'wxqxIOP9SoqKY3ZxvKchqg'
p1948
I1970
sS'-zuV9Du1HFHaQ6GnVyGWsQ'
p1949
I1971
sS'b8TpIQCKDlAp1Vrveu7W6A'
p1950
I5056
sS'tBB6kLk5ZS03PlizPxLpoA'
p1951
I2028
sS'I4cfBoRWEhB90HBdjh8z5Q'
p1952
I1973
sS'fDBybzZAL5UDscd33HCXyA'
p1953
I1974
sS'k1MDSedmjtp7n889SHgU0g'
p1954
I1975
sS'Dd6ElS2Cng3Qag_h4IQC-Q'
p1955
I2859
sS'5I6-yegWr4p1mtUMwNkVtg'
p1956
I4665
sS'vH8aclcD2T8X-dvMG11Ipw'
p1957
I1977
sS'758g6NGLp9deCbvowz62Ww'
p1958
I1978
sS'x4dMlJWPH-iaNqdDoRwmqQ'
p1959
I4124
sS'tw_UfR34h9a90PKhVu-WiQ'
p1960
I1981
sS'o2nV6JuhnaEyPE0k2M1y0Q'
p1961
I1683
sS'lLfcbYGTeVxQN5Ig0ompJg'
p1962
I1983
sS'4TCOItk-gIJROyNA5ftZ-Q'
p1963
I1984
sS'77Qa_ftGGDtTY7Ui3BFpiA'
p1964
I1704
sS'rr5zzVWVu0u-P5P1rHIV-Q'
p1965
I1711
sS'iSqAA0keruU-ZZro7jW0zQ'
p1966
I1988
sS'QhCfs4lkeWdJx7_lZdfCSA'
p1967
I1989
sS'j73PV5oCS8KNuAz73PzCmw'
p1968
I4982
sS'HODTFattOBq84VBncNfUCg'
p1969
I1990
sS'XMsh0_d5nYjdPcNv-6Qu-Q'
p1970
I3456
sS'CmG7H7BTZ_G_nv-DwyEbnw'
p1971
I1994
sS'bA6sFAZTIc5ddwpnB_WJUw'
p1972
I1995
sS'v7gsMsxQrQlQ4-JCefu4gg'
p1973
I1996
sS'L1IRIY-hqXHkQOki_mQm1Q'
p1974
I1997
sS'bJcH5UNzLCXk-pxHnwAi9g'
p1975
I1998
sS'Otp2k6ZFfQ4CX9YKSvZdLg'
p1976
I1999
sS'Pf7FI0OukC_CEcCz0ZxoUw'
p1977
I3794
sS'PLCijWEcAk74aiYxHb_tYA'
p1978
I4278
sS'sOhv5LHFsyf8t1JpgnocMQ'
p1979
I2002
sS'REFGsoLynoBWxdTEJeXYfw'
p1980
I2003
sS'GqzoKYXv6F1O85bhywyoSA'
p1981
I2004
sS'ungvf-MPW7P7ZzLMW_48Rg'
p1982
I2005
sS'C9ijJDnBaaWNQD5tLcNBFQ'
p1983
I2006
sS'wh4_AwDV2NSsZ-LEmNWffg'
p1984
I2007
sS'T-xWvRZ1rLf5MgEkBMZXkA'
p1985
I2008
sS'l2k9XwPJy_xPxvQHQ17Ikg'
p1986
I2009
sS'UcRcib_NrrV2cznsgqoFZQ'
p1987
I2010
sS'3yxW_9twke2IIJySDR4_4Q'
p1988
I2011
sS'suuIf6JWTZFjSu55k7zTBA'
p1989
I2012
sS'GdGGZo98_xRwbrZiYRP1ew'
p1990
I2013
sS'53NQU3w_AASJLBY7dkMdfg'
p1991
I2014
sS'InLqIX5bb2M7H724adkYVg'
p1992
I4984
sS'UWzAJf1CxoE8UE6i4wmR2A'
p1993
I2016
sS'3mNz5nQFTIBQm0oU5mBR0w'
p1994
I2017
sS'x2kIaq8x6Q2I6uJxmVg4cA'
p1995
I2018
sS'b9JZuU2kX4jB_JQ3p0IgIA'
p1996
I1917
sS'vWj8mF_Bkz2Wa7LuiAvVaQ'
p1997
I2019
sS'uVDJlnPJNx07_jDqI4jgYA'
p1998
I2020
sS'Zy3KuvFENmz2ZT2XtU7ZVg'
p1999
I2021
sS'A_Z-BO8MxWavSFrQ0kg2Fw'
p2000
I1942
sS'dgFZ18vo2cYPrQuIO700lA'
p2001
I2023
sS'GABWrw5Et9jubriKwMUDbw'
p2002
I1949
sS'nx2-yabqR68iAPjfWqN2uA'
p2003
I2025
sS'iAfBmkVdzVJFz1lprDG2BQ'
p2004
I2026
sS'F9_uhLb048J8db-kBxp7Ww'
p2005
I2027
sS'lf1m4CbheuUR7fFZoLGRvA'
p2006
I1972
sS'zJg4SBiWablLgygYKeJ8eg'
p2007
I2029
sS'HhfNSpdHGSGiuyi1anEOCQ'
p2008
I2030
sS'SI0B9MRW_x3O9ua-L3gvPA'
p2009
I2031
sS'K5FrmVM70cJDbMiZ9ywMag'
p2010
I2032
sS'A9AM8NH3ToduRvYDvDSADA'
p2011
I3738
sS'f46vtq8LawHpROHUA_qlYQ'
p2012
I2033
sS'v10dHdqf42tUkxbYVnFW6w'
p2013
I2034
sS'KVkTYoLE5YkF_8RaAPhMCg'
p2014
I2035
sS'NeXRy1C7PxS7bvIcQ3SymA'
p2015
I2036
sS'aFSj36n-q5kE7GgCWs13SQ'
p2016
I2037
sS'W9ay7L0o6O7Df88ixr0Y8w'
p2017
I176
sS'jQrJ4PshFYv-QG7rjycFhA'
p2018
I2039
sS'6EHbIv5w2I4XbXs3dG_D1Q'
p2019
I2040
sS'x1paA3aUHJTurbtFkBSOGg'
p2020
I2042
sS'rt3PC7WCgCKsoufmQJELfw'
p2021
I5040
sS'LaNXfiMDjMib2NhK4BE7-Q'
p2022
I2043
sS'dim5Svrt-B1jvvQsOIX22A'
p2023
I2044
sS'Gr17h3JDn7wWQo40kJKaGQ'
p2024
I2045
sS'nsawcqioX0NDmqsDsM8L4w'
p2025
I2046
sS'Jndb3IoOrN-xj1QFxvKAcA'
p2026
I2047
sS'WKIW7tWyMq7_XN0V2ouo0A'
p2027
I2048
sS'Ev55kUL77kZk6xCYam5www'
p2028
I2049
sS'sm6AzP6HSQhI9j9V_oiPWA'
p2029
I2050
sS'qnXHKdDFaPZ3PwygllYk8w'
p2030
I2051
sS'e_qnJqm6m4BKlNDp6-iO4Q'
p2031
I2052
sS'p4-tNsuQB6O11lp77KZKJg'
p2032
I3744
sS'TwjiWvK0ZP15lzGC049oIQ'
p2033
I2053
sS'qBkh0wlumV0uI5T4fEYVtw'
p2034
I2054
sS'B3xvWa3K-4U42KK5WIN9TQ'
p2035
I2055
sS'q8H1N3zrUyO336izK_WDPQ'
p2036
I2056
sS'74Myfl8pOGeKcmkVTimsvg'
p2037
I2057
sS'356MCNyR6C0IIYGRfjb1Ww'
p2038
I2058
sS'9nuv3DsQJFjApI3UgHvgxQ'
p2039
I2059
sS's'
p2040
I2061
sS'b2XHjSwooOFG74gw4NQtvQ'
p2041
I2062
sS'U9yWtQO_0LPjtaU9jN0JsA'
p2042
I2063
sS'8M4_nA8e9VacrirvCwrl8Q'
p2043
I2064
sS'_HabTJxnV1kE7mW8Z_vCNA'
p2044
I2065
sS'zGBkCg9Bl9TFT-dprKx26g'
p2045
I2066
sS'v2Bn5eAgkqrpnZkDmwZv_w'
p2046
I2067
sS'NIhcRW6DWvk1JQhDhXwgOQ'
p2047
I2068
sS'gvyYZgFdBbcT3xGjWOvZag'
p2048
I333
sS'78c_llOEjlJ5lW35bL137w'
p2049
I4625
sS'cKTA-iJbfrioKWFiDreghw'
p2050
I3425
sS'GFyA9ULGAeD-xZEPto2y7A'
p2051
I2071
sS'spDS7HPrOUc3wCNRyfSUnA'
p2052
I2072
sS'sBgR7lRY09Ddmv2I7e9hqA'
p2053
I2073
sS'23_DfS0ojdNS-MFGF_SjsQ'
p2054
I2000
sS'8zpZLEWweD0Tp6wLTzlZsQ'
p2055
I2075
sS'Dj77pkw_EZJvR-F4RIf_BQ'
p2056
I2076
sS'x0F6fGADTgnwlYyd6ADuKQ'
p2057
I2077
sS'iv_QXg5Zqlw72hqS-le6Bw'
p2058
I2078
sS'nOcP-0PIg4REFX4JeR49aw'
p2059
I4534
sS'nBE2yt4G59D-_3LAm3yRPQ'
p2060
I2079
sS'4paWpLov6LjpsNNgE1fhSg'
p2061
I2080
sS'YVkppuzTLw3zvVC_vp72mA'
p2062
I2082
sS'kA7sIBVKgWXVwWbpXsUHQg'
p2063
I4652
sS'dR9OiTIjuzvDdoqjuulKrw'
p2064
I3749
sS'tiXKS_mm_6zETM4fmSdhrA'
p2065
I2084
sS'ZXOxl4oyBa4JTN3hPbnYyw'
p2066
I2085
sS'aw973Pm1nrTbRjP4zY9B9g'
p2067
I2086
sS'Xj0O2l0bp633ebmG468aZw'
p2068
I2087
sS'HyGuZIfb_jwjXzMCerAJ4g'
p2069
I4981
sS'zATgdMp_5gL4kYPu7aVdUg'
p2070
I2090
sS'7z-Crwkwo3wyngtjFhdJ9A'
p2071
I2091
sS'SxMBY64n31UHPjxzIastUg'
p2072
I2092
sS'UcrIoZ71lwg0dsu-FHAHVw'
p2073
I3681
sS'ysmGZFFmavPKtQiyBKME7g'
p2074
I2093
sS'RkJOXXgXPCPgSneAGVUNxw'
p2075
I2094
sS'0Cwus8T5TL7AqKa3iAqyFw'
p2076
I2095
sS'irkLTpGy-NJjJDgkqZXC4A'
p2077
I2096
sS'yLW8OrR8Ns4X1oXJmkKYgg'
p2078
I2098
sS'afPIUwUh0C_lgHvt77cneg'
p2079
I2099
sS'CAQv3QQHUasQNtN-HEldAw'
p2080
I2100
sS'cFaHx-FkCnzdfF8BccukIg'
p2081
I2101
sS'XEhKHxi586Z2mUl-pO92LA'
p2082
I2102
sS'JUlMVyJQ6ijHCdMjs8bGhw'
p2083
I2106
sS'1gEx8Si6rkStWBp_IXnGCw'
p2084
I2107
sS'TqNsoWrbOLqxZF2lA24mpA'
p2085
I2108
sS'QsM6BSlosKUpMnH9iAgvZA'
p2086
I2109
sS'wQ0lKC5BMg3ZvCco8FI1EQ'
p2087
I2110
sS'FA0qTPinqNgLTbeYwiikUg'
p2088
I4626
sS'HEvyblFw4I-UsMqgPGYY_Q'
p2089
I2111
sS'L7VEJP1RrpXRRRWsYIu3tA'
p2090
I2113
sS'KzKb7hRHw45AScttackzWg'
p2091
I2114
sS'LWUnzwK0ILquLLZcHHE1Mw'
p2092
I2115
sS'uXbeuyVVBPKjb6LoGIuz_Q'
p2093
I2116
sS'KLoEkHgC5wrORHdPpPq70Q'
p2094
I2118
sS'WbYQ_-LfAZmZn30FrUb3zw'
p2095
I2119
sS'A2JGzkvNjckSmps_4FbKWw'
p2096
I2120
sS'3hWhXTkU83jsm3jIA-rkIg'
p2097
I3756
sS'9SpIJmgWjJzaaOZfy-TVYA'
p2098
I2122
sS'mYUurN0VcUwdLOZaUTN0gg'
p2099
I4760
sS'J3d-o-CSeERm_fBWtliXdw'
p2100
I2123
sS'cMIVlEuCKkiEo1QkPBbMaw'
p2101
I3690
sS'zi5quqUgVrLTWDDzTPZLPw'
p2102
I2124
sS'tmWwHfhaR0bNTKlr9dXsOQ'
p2103
I2125
sS'PeLGa5vUR8_mcsn-fn42Jg'
p2104
I2126
sS'see8qtWHzrOOK2lrl8W2TQ'
p2105
I2127
sS'uZdFsE_aHbFBChgN6Xa8tw'
p2106
I2128
sS'OZTZgCcxO7fcFkZ3LYDroA'
p2107
I2129
sS'se9CMJmRb7bwHAFW2U4ciA'
p2108
I4661
sS'RqUJo6tjD8m4JEuZ37VN5g'
p2109
I89
sS'TkXGMjczu5FcQFooyhYNpA'
p2110
I2132
sS'4UAqdgiCe1jwI1IQl96MIA'
p2111
I2133
sS'B8D9WyakYaObjA2icM7GGw'
p2112
I2134
sS'ke0wwp9Dx5CVUWP18keLag'
p2113
I2135
sS'1ziPC7yx27Ps_m0MzN2OxQ'
p2114
I4635
sS'rN4RItq4xONM-cjgSfbvDQ'
p2115
I2136
sS'D9IMOsV39BvoDNb08N9myQ'
p2116
I2137
sS'Rd6U3o__ng6xOdram9HjoQ'
p2117
I2138
sS'UvSOYVwqwyzNr40AU1t6Yw'
p2118
I2139
sS'N9Hb8SWWPOy7zqlYFB0MOw'
p2119
I2140
sS'b_WfCL7Vulgd0HyUmyMpsQ'
p2120
I2141
sS'zRqlb75L1lRIBoXWeypx2A'
p2121
I2142
sS'SlgpAnj2gQd44EM_Uq6DkQ'
p2122
I2143
sS'BZZKX1-LuWoruSstXPzanQ'
p2123
I2144
sS'TLiv7pKzS1ruZ4rD1ZzhJw'
p2124
I2145
sS'UAvHIpbXzQqJAXePDTJkZw'
p2125
I2146
sS'qQecSd0lynfB4g-LPa9JCw'
p2126
I2147
sS'-34NV3A5a5gcL-s8UH4KbA'
p2127
I2149
sS'4KZ97AwDHqOMA-BEDBkEfw'
p2128
I3763
sS'J7Hl7OCQcFjmUerZhcwxOw'
p2129
I2151
sS'P4tSZPeEeDgVWaJH5hwwAA'
p2130
I2152
sS'_KGMFTUhJMBPru7fW8bUDQ'
p2131
I3407
sS'-DFCC64NXgqrxlO8aLU5rg'
p2132
I2153
sS'ixxfMzn3-vBRgG10ofwLgw'
p2133
I2154
sS'wEqETrWwpsujK2r8ZueOFw'
p2134
I2155
sS'Vwslifegl59fQVOe5BH1gw'
p2135
I4419
sS'Z1yy2pa7G3JB7JWJfmeg2A'
p2136
I2157
sS'_Ud2sCb9hXFaKudsvz5mpw'
p2137
I2158
sS'96IKLbNHdK-sOAjuMwoegw'
p2138
I2159
sS'3wFA8MfvpvTlxANnnJCz-w'
p2139
I2160
sS'0aBTYXlP3z5nJ7okTARj8A'
p2140
I2161
sS'hlPOotTeYCyd5TQAKpv5LQ'
p2141
I2162
sS'Vkk8YfesfF2aAehFb5SlSA'
p2142
I2163
sS'd0D7L-vfQDIADolnPAcb9A'
p2143
I2164
sS'XY3EtrJI1OLMtiSQVrRZug'
p2144
I2167
sS'duymKKwUruH8GwbvcaFd0w'
p2145
I2168
sS'9IRuYmy5YmhtNQ6ei1p-uQ'
p2146
I2169
sS'hkSiQAfl6w3882JJQzRTlQ'
p2147
I2170
sS'pMefTWo6gMdx8WhYSA2u3w'
p2148
I2666
sS'F-KA6dHxp2L_subuYam_kA'
p2149
I4594
sS'N3W4nLE-nVKevzyI3_B4Fw'
p2150
I2172
sS'nj3syiLs3lABLtPVyL0ivA'
p2151
I2173
sS'7dnh9OrD8LekBwvachGH5Q'
p2152
I2174
sS'LhFzr2vZDEc2KNHxuiHtIw'
p2153
I2175
sS'ZztSdVB-ryMbQp1amckV9Q'
p2154
I2176
sS'Nr2nibp1Oya1MPsuAgqB9A'
p2155
I2177
sS'qSPFhtM-eO842BVQXtAMNg'
p2156
I2178
sS'41nlHIIkh19ENWF8X2_CRA'
p2157
I2179
sS'TeHp5f1KY_7Mh-swUWSjuA'
p2158
I2180
sS'SKwYP9GGgJwkTbpmFZz90g'
p2159
I2181
sS'lB4ju34kx4M3TO-8ierv_g'
p2160
I2182
sS'Hm7kGsruVDuW-EPsDQ8dyA'
p2161
I4378
sS'6UkBaNfSwL0kDyopx7agUg'
p2162
I2183
sS'bURBDO2lgSrxnth2P7v3Gw'
p2163
I2184
sS'2Od6rQYNvPUXQC2Go7vIqg'
p2164
I2185
sS'qu-r6QIV46StPjPYKt51Og'
p2165
I2186
sS'nGKTdJGXXwuThFlMMqyk4A'
p2166
I2187
sS'pa86Mfdc8SEmFJavReMDaA'
p2167
I2188
sS'aoW2TxrTU0GhbwOlk2bF8w'
p2168
I4067
sS'JeueZm7jbE8ekvk0Z3HYNA'
p2169
I2189
sS'orHVoIN1Oj_rK3KDqcGBIQ'
p2170
I3768
sS'N0LfSpP4RNS9t3GwIcuNxA'
p2171
I2191
sS'eCvAJt65wLit2S_MTnMNoQ'
p2172
I2192
sS'fdRGp5Mp2Cbl5JTei-Mibg'
p2173
I2193
sS'86Oe8OA4QG2bGcsFek_C4A'
p2174
I2194
sS'5CgjjDAic2-FAvCtiHpytA'
p2175
I2195
sS'76vIFZcC7owykCBjMfGVXg'
p2176
I2197
sS'Eh17jI_pImKhDg1XFs4E-Q'
p2177
I2198
sS'NIeLhx7kQ7KROhH2zs5qYw'
p2178
I2199
sS'0pY1gYe_nyrBHhKex-nhgw'
p2179
I2200
sS'I'
p2180
I2201
sS'bV7-Wtuu_TsE2Z9nEZNXpg'
p2181
I2202
sS'b76FcjQd1RkpnP6I-ajhjw'
p2182
I2203
sS'f0u9T1XFu-4ms7Mvev3oaQ'
p2183
I2204
sS'JxbOYBzGdRhI1Ip9-chmkg'
p2184
I2205
sS'L'
p2185
I2899
sS'_q_z9bIwYg2q0mSNbwxmGA'
p2186
I2207
sS'ruKI02UFEyBcvow5DXoGRQ'
p2187
I2209
sS'm8chY7QWNWfeisYG0yiK4Q'
p2188
I2210
sS'kO30XR2WeF6bla6dK1ZZLw'
p2189
I2211
sS'TV0V5o9M9iVZihUAzm0PIw'
p2190
I2212
sS'zZkUkK9M0v02qHBCCm5zaA'
p2191
I2213
sS'1pzP58PeWictHQzctMU0nQ'
p2192
I2214
sS'BjHK42BK2TV7CCBRFxW3Ew'
p2193
I2216
sS'i_DR3vdE73nVm2GlMbGpGA'
p2194
I2217
sS'RrWpgjirADFUK9jGF_Uzmg'
p2195
I2218
sS'X1O_E3b2zFcDXyEhgvw8nQ'
p2196
I2219
sS'xoUUkyCSCnDJ_hxx1NyTSw'
p2197
I2220
sS'wPGr4U0rKgKH8XNSSfWrFQ'
p2198
I2221
sS'UfRm6t31UuCJ8u50Sc24VQ'
p2199
I3827
sS'm1wo8yvaTLLhaILpHNLinA'
p2200
I2577
sS'x0WpY0u5PqIeBqP9MaLfqA'
p2201
I2222
sS'gTBXZLSlx9xvfbV5h-uNuw'
p2202
I2223
sS'8ZltQWq5Q1C-D8VMVEUBwQ'
p2203
I2069
sS'yZFAlk6UdPqzt-k2laVVaQ'
p2204
I2225
sS'r7zUJCHE7xKDmxhvjg3Nug'
p2205
I4323
sS'mYvZwQ3T5JzqwOyURQWA_w'
p2206
I2226
sS'yrGIgk5eaWy-eewLNv4KHQ'
p2207
I2227
sS'WGBpuJBQ1FqRTxM8J5BBHg'
p2208
I3805
sS'PWgcYLgF2iO86dEVQFxH9g'
p2209
I2229
sS'x6erNzhuM_c7xW6PlqClIQ'
p2210
I2230
sS'8rI2CoS4ltQePbZceSOgow'
p2211
I2231
sS'vKGfL8qXKHsM9ycwaoJDxA'
p2212
I2232
sS'wwmJ56OlvMC_Z8llXTd6mA'
p2213
I2233
sS'qhw0RjIGgStx7s4mjqkWFQ'
p2214
I2234
sS'HFECrzYDpgbS5EmTBtj2zQ'
p2215
I2235
sS'zEsLXEnIgforeXnQBPSiJA'
p2216
I2236
sS'YS4pJyJjRURaiBgrlDeohg'
p2217
I2237
sS'UnzUYnYbZn5wbyZwQPID9w'
p2218
I2905
sS'Amc7J0F3KeAKzOOQrlpqog'
p2219
I2239
sS'FZNRzY6m67fhlnNE8XglTQ'
p2220
I2240
sS'vJVrWk9cyHLTtPRsI_AGWA'
p2221
I2242
sS'jC-LuL1IEU8TJp342DmWKw'
p2222
I2243
sS'_4NHePAXLhcloTD04wqpqw'
p2223
I2244
sS'ILvXe0EWKAH45eyUUxlv0g'
p2224
I2245
sS'Uv5v7r1eN4XFsKZ2jwn1sg'
p2225
I2246
sS'f_1bRw8RuK-zZAKuUMTqNw'
p2226
I2247
sS'M46t0gV5doOlr87TZHPfrw'
p2227
I2074
sS'p3heVCnq3M0H2LMxIuuc5g'
p2228
I2249
sS'OV2QAFVRbm123awDPQsFkQ'
p2229
I2250
sS'kp1SDNjwwBPFmdF1kadRmw'
p2230
I2251
sS'sSveQQvgkDrPbpopNvbPSw'
p2231
I2252
sS'TJMgOTcm2ShyOpablSYbXA'
p2232
I2156
sS'-8EnCioUmDygAbsYZmTeRQ'
p2233
I2254
sS'VWmuhCSYSJyAuXRyckp1tA'
p2234
I2255
sS'RwPKUrc0ae54hV1DWU1MsQ'
p2235
I2256
sS'cVrM2BvOvPV0Vi_rC8kepQ'
p2236
I2257
sS'cvrYcvhjZyyMWBNNWXlT8Q'
p2237
I2259
sS'HyAAsCY79JtNBjjU7pn_dQ'
p2238
I2260
sS'0CqAmHUSWPEQdrnCbDiaVA'
p2239
I2261
sS'U5YQX_vMl_xQy8EQDqlNQQ'
p2240
I2262
sS'vn8nPLA7J_GkHEiW5vEmbA'
p2241
I2263
sS'GSMBpnEny1cR12yPIwO0Dg'
p2242
I2265
sS'7PiRdxYF-Uvzn2fHqdtU1Q'
p2243
I5158
sS'V3WsMA3Yf70xALqayovNvA'
p2244
I2266
sS'ukkRTJLkQTx95fCalVn6BA'
p2245
I2267
sS'Y6XH1iNsuuGAcO5nODI6rg'
p2246
I2268
sS'sMRucNvjaoSrvo6Jo5yjhA'
p2247
I2269
sS'eZGoPMRfq2hw5LfwJg0uTA'
p2248
I2270
sS'4x3x0oGs9gcHCoQpqoI9hw'
p2249
I2271
sS'uZ4z-4ftg7LbGR_blmZTow'
p2250
I2272
sS'PkeDOqXbgEOkR-aKUHoQ_A'
p2251
I2273
sS'wa40Yx8wrZfiRqTgZsdd0g'
p2252
I2274
sS'5WBIwR92ZNVmsG7bRaxHKw'
p2253
I2275
sS'4'
p2254
I2276
sS'qUGMYSGV24KD8QFCdGGIlQ'
p2255
I2277
sS'gWKCTyB-KPvKI_Q3BkjhNA'
p2256
I5133
sS'ZqmgPbDdZaM7GbUGuVbshg'
p2257
I3782
sS'DXh8yxwZCg5Ckj5kmDvKXw'
p2258
I2278
sS'O3DAFtr4QxBlPV255qFx6g'
p2259
I2279
sS'hFCUoOVs1rA4FX9Vps9fsg'
p2260
I2280
sS'WYCv0Q-QIKCSIo8IqOLOfw'
p2261
I2281
sS'5SestduEtjxmUMPeQmgNmA'
p2262
I2282
sS'cD_hpkvErXCyQHBQzv8KYQ'
p2263
I4008
sS'ep8NBpLx5cfwy2CaE7cG4A'
p2264
I2685
sS'eyHW_diFXlqqL9EMu4LeHg'
p2265
I2283
sS'UU9aCh4ZN2N1nfFXAiJz_g'
p2266
I2284
sS'73yav0YPG_qRb5w7_oq7rw'
p2267
I2285
sS'fjEukWsKu9k8E0gJuRwf7w'
p2268
I2286
sS'tXqVduTJHLbrrwVEO8JX6w'
p2269
I76
sS'UuIr2WKA0gZRyRvWIlAduQ'
p2270
I2288
sS'tC1INFVghe6Bb6fbIeGmbg'
p2271
I2289
sS'sr2pTeBbehzepVkzUXft7Q'
p2272
I2290
sS'TKzFASCz7GLGUcwO1QG2jA'
p2273
I2913
sS'0Igx-a1wAstiBDerGxXk2A'
p2274
I5126
sS'NOSX_lFBzce4z38j6D_0Pw'
p2275
I2292
sS'5CX8ilaGZ7kyv2rUxSdQCw'
p2276
I2293
sS'zDBOdWtl2PsNY38IeoE5cQ'
p2277
I2294
sS'0DnQxBz82tU--KsevUFCTw'
p2278
I5001
sS'QMvKdCyjwCzqQey1Y32nKQ'
p2279
I2295
sS'EPNie8gH3qjKojb0hG1sUg'
p2280
I2296
sS'd67zTET_2IuVoWcUU0aWaQ'
p2281
I2297
sS'FoVZlbbz0e19YiOR8DCYLA'
p2282
I3786
sS'J'
p2283
I4471
sS'wv08EhpO_yk4rKQuYGUdEA'
p2284
I1889
sS'jcjtFvsiE4UXZMKtEWlTcA'
p2285
I2301
sS'YdVXCF-VZYMFWzLWnuhsIQ'
p2286
I2302
sS'qX_U1mWpSKknGvQGuhut4w'
p2287
I2303
sS'lvGlIBv4xkHiQBnNOuRYZQ'
p2288
I2304
sS'InF1h_4LvMc9hwRUMDm5QA'
p2289
I2305
sS'-gCbrwbpIn3jTEsAbtIFBQ'
p2290
I2306
sS'q46P4WXcdOeIx0yE5keY9Q'
p2291
I2307
sS'vcwXkjGaQc9FJOm8mFfFow'
p2292
I2308
sS'jqp5BEMzEUIWTCt6pezS2Q'
p2293
I2309
sS'L9XZe2Bx6TzqrUp2YbFOLQ'
p2294
I2310
sS'Qq_fV6NFDnu7sKuScVS5Gg'
p2295
I1197
sS'WuGrrM__qrTHal6fkr9rZg'
p2296
I2312
sS'kap-a51yfAh4HeJFlHMS7A'
p2297
I2916
sS'lKVrn4Jdh2Joc7WzpPBhdA'
p2298
I2315
sS'jiIJblzURKNWvC82N8iSOw'
p2299
I2316
sS'Cg189N5utFD_4VxXImPZjg'
p2300
I2317
sS'SXxNZiwEgfAQPH3arQcYUg'
p2301
I3790
sS'WG0kTEJJNfT1egnunxpsvQ'
p2302
I2319
sS'p0DRbuNP_WxBMJG61ctIpQ'
p2303
I2320
sS'psvC7bj9A5Sn0NU3QVvE8Q'
p2304
I2321
sS'-K2Tcgh2EKX6e6HqqIrBIQ'
p2305
I2322
sS'FxBfuhlJuEljR37RpuDhjA'
p2306
I2323
sS'1prVpumNNs_6LmHR_6opYA'
p2307
I2324
sS'wFamDbjhhY_myRb4dUEwoA'
p2308
I2919
sS'p_2daiuEk774FFHsKrCAlg'
p2309
I2326
sS'IL7s7BR8DuoOFwYYM6cZ7w'
p2310
I479
sS'9OHb0MKXwB-_B0ZIV9hRPQ'
p2311
I2328
sS'cqf8dqO5_QUxjfo6WiM7yg'
p2312
I2258
sS'JgPUVaNG4vArVLVO7uR9nw'
p2313
I2331
sS'SDytcPY5fiuuDbTkPE8GyA'
p2314
I2332
sS'WD0pchQWVY5tBbPqRq4zjQ'
p2315
I2333
sS'tFeGSYSSSo3UdWIRSi40SA'
p2316
I2334
sS'YMgZqBUAddmFErxLtCfK_w'
p2317
I515
sS'1pXKWNTf5RsPkd6er5aVog'
p2318
I2337
sS'QJykzZNT3gDRXO4WJ9AMUQ'
p2319
I2338
sS'z9uf9-0uX5Jh8-4Y5l2PQg'
p2320
I2339
sS'RCpuxT8sMB4-NjnQeimXog'
p2321
I2340
sS'x9DRvDktxccwvZemaOMgZA'
p2322
I2341
sS'dGND9DDQe5L6Lli2TolF1A'
p2323
I2342
sS'soXCrtlQ3_z_kBC7OrT-_Q'
p2324
I2343
sS'Ofj4dQb8FOA1ukRbDjITmw'
p2325
I2423
sS'4LMErvQTSEx6pXVAXAJaQw'
p2326
I2346
sS'vi1Y6AVgN2RWqnDCuGQxHg'
p2327
I4866
sS'VEj1OuO6QrQMXFhuMZJ8cQ'
p2328
I2925
sS'9bxdPvAhP6cuipD5s2UnCg'
p2329
I2348
sS'tk9O-CtU5I74zBV9EruTcw'
p2330
I2349
sS'V6hd4L0GiO1uY8ovsywnxg'
p2331
I2619
sS'vivFH2_uIcOyqel-cHmxLA'
p2332
I1987
sS'Ux0QheGWOT5bchLngmdFuQ'
p2333
I2351
sS'j7yDFhbyYf9JDJRdbCTHZg'
p2334
I2352
sS'3gq1d-Qiyajk5TWq9jNytA'
p2335
I2353
sS'7fDqaGdUMccXQ4bnPwR6yg'
p2336
I2355
sS'TX4RFDBXKEEEMMQXoihInA'
p2337
I2356
sS'a4nhy231AX3j3LqnWKW3Ng'
p2338
I2357
sS'-RApyq06DMBii7ovXtQnfw'
p2339
I1529
sS'RQqfT8WQlmFHmPp9X8G9jA'
p2340
I2359
sS'sB8Ta-xnYmW8N6w6RgxwIg'
p2341
I2360
sS'yR8-A4646jdmtkFqxETANQ'
p2342
I2361
sS'FSRYmOKhDiwbokaRIV16VQ'
p2343
I2362
sS'RKfETgoe0wuZds8EMDBw0Q'
p2344
I5074
sS's84pefAbuXnkGXLGHDLDYA'
p2345
I2363
sS'c_zD6u1USfv3FI6wg1T9JA'
p2346
I2364
sS'KFaUuuvfw-6rAbTzuYwU0g'
p2347
I2365
sS'vL-7Z3rtMYLbY-L7Xd0JAw'
p2348
I2366
sS'9u1ad0h4JY5pWr8sM9dgZA'
p2349
I2367
sS'coKnuxLznH0FHb34m4ZLCw'
p2350
I4749
sS'v_7lmS6pGGkq6n0X9EljIQ'
p2351
I2369
sS'ki7HkJ9iflOy17gZZfHxPA'
p2352
I2370
sS'gjJ9VxbWjecY-xy8a8o-DQ'
p2353
I2371
sS'6rvaULevZEp2OM_b7cxFeg'
p2354
I2372
sS'QrP9FVvNwLd7Isv24zCw5A'
p2355
I2373
sS'pSfeno8ExPHvn8NXca5sfA'
p2356
I2374
sS'_'
p2357
I2375
sS'POAKZScwldLTMCtvezW5mA'
p2358
I2376
sS'FOBRPlBHa3WPHFB5qYDlVg'
p2359
I2378
sS'xQLy_wpqrR3etSXt61OIIg'
p2360
I2379
sS'-_dGQOHpKRFgDy5yTjjlUQ'
p2361
I2380
sS'hR8LdFd3hskR0eZbuMT31Q'
p2362
I2381
sS'HtLCevwI6lb9Qp3BfAiVNQ'
p2363
I2382
sS'Xf5KPJimu8cLFndTL8WPJQ'
p2364
I2931
sS'F33utOIKKTw6jV_03cDV-g'
p2365
I2384
sS'm1AUK8tI19tUT_N3DMkyIQ'
p2366
I2385
sS'Wk3Ezdn1ChOPZYp7rkko8g'
p2367
I3526
sS'83Ri6AVgFk0F6VNfkE1ykA'
p2368
I2932
sS'ECZPvbk-sp4V2Yj_tfQERw'
p2369
I2387
sS'Y2HA9jzLfCsyBEfF6oHBNA'
p2370
I2388
sS'NDhDMKqSiBc0L06jKlFnmg'
p2371
I2389
sS'zzpgpo54-_P-4rzzBtOuLQ'
p2372
I4507
sS'wjR3wbFfjz2thNlKKZc7aA'
p2373
I2390
sS'Rhvt5HoMG7mayNd437Vm2w'
p2374
I3802
sS'oLT9S2KgqVVa1yGA5hx2IQ'
p2375
I2392
sS'Lr3Nlbzp3b31KooZPvrrdQ'
p2376
I2393
sS'm7z-tX6XDZ27xGhGjnI21w'
p2377
I3803
sS'BrGFc2IUccf2sKcvLc78LA'
p2378
I2395
sS'1rXmf38TxjzKufOncnAt5w'
p2379
I2396
sS'jb5lPVyQ5DmAPM1KPglmQw'
p2380
I2397
sS'AeRuFuddgPh9pxmBVFIUaw'
p2381
I2398
sS'Et0qEP5K0oTCpAZ0aULmpw'
p2382
I2399
sS'4sLhuOs4K9mov0bBj7HaYg'
p2383
I2400
sS'BQLc7jSHfPXDvleNFJ6lyg'
p2384
I2401
sS'lufa4bHQd3XLYQE1zXis0g'
p2385
I2404
sS'EL9Ugx4jO1vmawyL91NOsA'
p2386
I2405
sS'J8_KEdgc9_k9PCLia16DlA'
p2387
I2406
sS'B4TOHqJvwqYS5F4rRkTQ7Q'
p2388
I2407
sS'CNaaizAUc2c4WIb1M3BBPw'
p2389
I2408
sS'exPhuONOpfCptZ35Ur3bcQ'
p2390
I2409
sS'4MHFQcFfHzVe4ISx3lvHlw'
p2391
I2410
sS'sAb47uEcSjK3uQcylhkhPw'
p2392
I2411
sS'dbv6-7hsnARpARPZzyI3BQ'
p2393
I3468
sS'TXGr6gc0jCSJhbgTMmfsqg'
p2394
I2413
sS'hizGc5W1tBHPghM5YKCAtg'
p2395
I2414
sS'WSRRRaoIuOtpzoxseWu1Xg'
p2396
I2415
sS'_lqJfN8BVwl6wxfpzkaggg'
p2397
I2416
sS'dITK3S2xtmwQpqQcjDyyBQ'
p2398
I4978
sS'ZtorCVk8Y_2Il5wNYv6Dng'
p2399
I2419
sS'6tbXpUIU6upoeqWNDo9k_A'
p2400
I2420
sS'_Idlsaw2hXJN8NtNWamt2Q'
p2401
I2421
sS'LLgTAp0F5HkgJjlIFwDSRw'
p2402
I2422
sS'xQXUG94oRQxYUHZwS6Cwzg'
p2403
I2424
sS'jO9mn68MeCPl1wDRZAWyow'
p2404
I2425
sS'ge_yqJd241NMPuyOS_J_LA'
p2405
I2426
sS'_VD870pQZJPqcGd07vxMsg'
p2406
I2562
sS'FMr5EmLJKQvjpVH47HCi8g'
p2407
I2428
sS'YXMiSBrLNcnbxnfMK4BVug'
p2408
I2429
sS'NkVYcoaThHjOfTTgq6OdHQ'
p2409
I2430
sS'Zohjr4ZPl76vryPqiQLJ4A'
p2410
I2431
sS'7eFy-LxZuvS2K6PAQoibBA'
p2411
I2432
sS'rxtUuGNCk3W6xPWtUwvyDg'
p2412
I2433
sS'9df8KToLljo-v--Wke2W1w'
p2413
I3695
sS'C6uxJzwfCS-EsGACRocTBg'
p2414
I2434
sS'fRIS3H-HltbktixjkFO2xQ'
p2415
I2940
sS'_ImEUIt_jn7iJALBlSYCsg'
p2416
I3617
sS'eQJtcM6rK0-x2F2UlZaNJg'
p2417
I2436
sS'mtUzCYKhlc5tgyy_fZPC2A'
p2418
I3540
sS'YxlDkpO1MlR1LJiU0OtGJQ'
p2419
I2437
sS'xCdBM9yKyKyqW9qC2RqAkQ'
p2420
I2438
sS'CMQ66mdfbGZkeU5K-KVOCw'
p2421
I2439
sS'YLXtmMLhNVJBPgwPlppaLA'
p2422
I2440
sS'KzMgL2E49onbwB3g4prnVA'
p2423
I2441
sS'488KrW58ryVduy0Me8DRxg'
p2424
I2442
sS'VZdjfp53dguI6xDjz7AQxg'
p2425
I2443
sS'K2hRhu2g-LR4qpxDsaAtzQ'
p2426
I2445
sS'_KDforIDsQS6bIaJi0_V0g'
p2427
I2446
sS'EveidIU-Yb_fjAN2pmx7Aw'
p2428
I2447
sS'xPVBWySOvT_3a6hKqtML4Q'
p2429
I2448
sS'gMby-3GBgZ5TefB3xfT9fA'
p2430
I2449
sS'Y4Du3cllZ_gpNjzTvmeZ0Q'
p2431
I2450
sS'ofi1Wkt-vV1fREaQtiBfKg'
p2432
I3791
sS'2XcsiGtAWHKiJK6th9hHug'
p2433
I2942
sS'IpReaQYuXO_nB07xnkHuNw'
p2434
I2454
sS'ZaoX1v2xikBd9NXZK1eADQ'
p2435
I2455
sS'MGPQVLsODMm9ZtYQW-g_OA'
p2436
I2456
sS'ukCAVNbolx0_gaAkDYZnEA'
p2437
I2457
sS'4jPsIgMZT4_Ks5-myaW9Bg'
p2438
I4764
sS'qprNlRoDQEG0bOiz_CzO_Q'
p2439
I2458
sS'goClN4DjVye4kzISSmRMkA'
p2440
I2459
sS'IUyPbylpHYwzxD4uZf5F1w'
p2441
I2460
sS'OUDaJuPhq5dHi6XRPAGTCg'
p2442
I2461
sS'_txhy3UvyGffFh8FLO2_qw'
p2443
I2462
sS'VyRICVwE3VfGynw5ly2oBA'
p2444
I2463
sS'82dCHyU-ANOgdhxUgZsUeg'
p2445
I2465
sS'6jJaCmz5-mm1KpMhK4XsGA'
p2446
I2466
sS'd7D4dYzF6THtOx9imf-wPw'
p2447
I2467
sS'wV4uhvJGok8nOR56Ex5mAg'
p2448
I2468
sS'cd2mk8SgN7XJZUr12UZLmw'
p2449
I4793
sS'1CFYzyco4gN6_6-8zxlAUQ'
p2450
I2470
sS'7vCCPqR9cJoy_AY0BkdyUg'
p2451
I2946
sS'njUgJcn8ZN0BdZdNEswRwA'
p2452
I2472
sS'JjtQ1txoSd69pSwUPsWxcA'
p2453
I2473
sS's75d8PSqVbCJtclvBdne3Q'
p2454
I2474
sS'zTgmTmDT0G2KYXpuifxmYg'
p2455
I2475
sS'gekp2Z5I4vPGf2NeFnZX2A'
p2456
I2476
sS'qinBGdCRzdbj3Sc2ZnxFQg'
p2457
I2477
sS'S'
p2458
I4647
sS'd8z9uG3SHTgkCNj5iVcG8w'
p2459
I2330
sS'b-v0kiRnyLeQ05qTBcGQIQ'
p2460
I2479
sS'mtVsTE9pyOsY2xCuRRFCvw'
p2461
I2480
sS's6xZpSHNteqqsLzuC3Jd8A'
p2462
I2482
sS'E_1rVCWq4NgbXhEjMC651Q'
p2463
I2483
sS'hN03Wim4nDQ-824277aEsQ'
p2464
I2484
sS'w2o8rsUA_NkNd5AbUDO3nw'
p2465
I589
sS'zzaq5Fn1U2Feut3dGxidNg'
p2466
I1992
sS'cTf5rrUd253mkJtUW0DYKQ'
p2467
I2487
sS'YkMCNI3nVukPL_PIztHZJw'
p2468
I2488
sS'XKAFikZAfddYv0Vg1PUkwA'
p2469
I2489
sS'Bb9519xc5RbTOzOGFQ5N_A'
p2470
I2490
sS'TMd_Jg0qhBL3PWqje9lnPA'
p2471
I2491
sS'Fd8Heu1mZEra7bCX3Xb3-Q'
p2472
I4831
sS'F8UXRG5R_TgSNJmKKQMTSA'
p2473
I207
sS'WvntDWMQnaEV8agu3gcTug'
p2474
I2493
sS'rrTmcv7FtbwgjAinmS9uTA'
p2475
I2494
sS'06g5pqdYhsLIc43_1mMYGQ'
p2476
I2495
sS'eUjJ0SDe6eBoZB7iKYifnw'
p2477
I2496
sS'NV7Iqq3yQEN1_WWt5qDsCQ'
p2478
I2498
sS'bePiA8Ik3GTuN1N1gdcYHA'
p2479
I2499
sS'igll2PdsMvQHzJhzttrx1A'
p2480
I2500
sS'lrSlArehU8XqQlRNPQ7dbQ'
p2481
I2501
sS'ibZIMJ55dvoqag4_JrQ4sw'
p2482
I2502
sS'5'
p2483
I2503
sS'i2KocsDcufoW5PNi_1LJnQ'
p2484
I2504
sS'PODRIoHyAiybFWUMWaTYyQ'
p2485
I2506
sS'uQEqsxqT3U6Ll1dsnqst-w'
p2486
I4910
sS'Hy_ko_2hkLTxvO7G0pIGsw'
p2487
I4931
sS'cPcStFGBlk-6lWWsttIfVQ'
p2488
I2510
sS'UXbCcmkYGl3DH_Py5UOtbQ'
p2489
I2511
sS'uLthrQwJFUYvfNzsB45iHA'
p2490
I2512
sS'6s-g2vFu12OemhiK3FJuOQ'
p2491
I3828
sS'XnU8RZGaIPwNttmofJoOlg'
p2492
I2514
sS'_BHTC7nyCBoZcfiiD5cOXg'
p2493
I4929
sS'KETa97Knz4ZJZPv53CHGcg'
p2494
I2516
sS'cK8i_MCJqZnH-5sApREJ6A'
p2495
I3907
sS'SYaAl8ra3rZnQ3lrDzIcYg'
p2496
I2517
sS'77orrALxKhy6zamnstuMVQ'
p2497
I2518
sS'HvdgGKbv1OHmKBPKQm-xNg'
p2498
I2519
sS'-q1uWjIAiiTLgnRzwIrCrw'
p2499
I2520
sS'PadmV2GEoA6mWpQUpPh7Ig'
p2500
I2521
sS'vhrp6p6I8FgwfW1FFnOMsA'
p2501
I2522
sS'OJMaLK34O32l39MqlIu28w'
p2502
I2523
sS'e1FuiYSV1v29q2OTR9ojBA'
p2503
I3686
sS'K0v1gtGag4je0e-MyX3gNQ'
p2504
I2524
sS'l5J_HyR1xn8PkqZO3CVV1A'
p2505
I4695
sS'_sry1epOAL4oBQpRq1V-Dw'
p2506
I2526
sS'WN3FQ5lNz5q8FFbeH42OxQ'
p2507
I2599
sS'XCW5pJCDhvlW76XTSUEkIg'
p2508
I2528
sS'pILwv96yeZsmUjglRsSuDw'
p2509
I2936
sS'xtnxQ-61hHrkYZ3fa8OCAg'
p2510
I2529
sS'8xev0Avovx_jp7LEw8JqvA'
p2511
I2530
sS'yuhu7mu_VZeCOvKLRT-G0g'
p2512
I2531
sS'WFGLQTWfEChPy-PpRplqKg'
p2513
I2532
sS'JMij6T9QePlAUmUNTl2UUg'
p2514
I2533
sS'Kc7IwXLrJVqAVMkX6pxWbA'
p2515
I3831
sS'bm2DqfP4P454FjEtCbZdkQ'
p2516
I11
sS'u'
p2517
I2536
sS'qGi0xjK3HM3Lfr6kSwKZdw'
p2518
I3832
sS'zEADN2OWj9C6MBjK7WOadw'
p2519
I2538
sS'2Gy7OX3zFVfNeeHLhmpzJw'
p2520
I2539
sS'nT3tLANzGy0a7DuB_GIQjA'
p2521
I2540
sS'jROifHJoOp30V2j45UECEQ'
p2522
I489
sS'NOmAy-MwUgr_v8dwKBAJNw'
p2523
I2542
sS'f4_MRNHvN-yRn7EA8YWRxg'
p2524
I2543
sS'B1CvITVmO9aD6NFk0U_Y1A'
p2525
I2544
sS'aIzN19RssPWSw9nDCPXU3A'
p2526
I2545
sS'KuQihTwMfE8pd9vwNyaNaA'
p2527
I2546
sS'Xe_YZP3xz_JsSaQq8czlgg'
p2528
I2547
sS'Cy1PV2TdYeDFA16mUOlr3Q'
p2529
I2548
sS'Cc1nCwhvA7UxsRnBE-FLCQ'
p2530
I2549
sS'CPR7gdg-UXNDwTVv0HQcgA'
p2531
I4086
sS'Qd5GyT45vcCydR2mM9dcmg'
p2532
I35
sS'GmQR50bIII7gDNRYEgfXfA'
p2533
I2551
sS'B1829_hxXSEpDPEDJtYeIw'
p2534
I2552
sS'0zRLjgw0PQUwqiUCOIgShQ'
p2535
I2553
sS'gR7is-YzJRnRdQ0AhbiWHA'
p2536
I2554
sS'rXMxtpN--c2WQS5s3hHijg'
p2537
I2555
sS'r9ecgI5mnHgPo4W0fPRqPA'
p2538
I2556
sS'7FU0F2OuxI_VmzVsZ_DBcQ'
p2539
I2557
sS'5dGy_3zt1CAd6JoEO4sd9w'
p2540
I2559
sS'1Y0zsJSfWLkfDylH0X1yNQ'
p2541
I4362
sS'o0emAbW2Z9MnyGxBUzH2ZA'
p2542
I2560
sS'jm4ZIZzxteouIyux4kVi_Q'
p2543
I2561
sS'fyS8H0BNDv5du_X7ttUEqQ'
p2544
I2131
sS'SIpBqzGhRM7T5cDFiuIryg'
p2545
I2563
sS'eranaOVNzgofCu_ciePCbg'
p2546
I2564
sS'QQtoHnP0cP7nzNnUob_1CQ'
p2547
I2565
sS'op8FmScVlXFkVcqmyAlD3w'
p2548
I2566
sS'25nqzvPO_s0E8s0JCcnRZA'
p2549
I2567
sS'Ae4uXwFHp-5fGrt6OONaXw'
p2550
I2568
sS'2oZEuBYhqekiyTk9P7Ikyg'
p2551
I2569
sS'dLuNvprTH04p6ZNCyjIq9g'
p2552
I2570
sS'bjs9yz6OJ4kg4Z5RvlrmHg'
p2553
I2571
sS'1MhPtfUC2Uw0bU3ewkb6PQ'
p2554
I2572
sS'kmrK4LByvnX3SgU2tIDmOw'
p2555
I175
sS'LVhWEqGNnk8VQI1hw_zV0A'
p2556
I2964
sS'yAACM20_jx5uDnQ_CyKkHA'
p2557
I2575
sS'uAa2Hu6XtuUPxX_B3uS8Aw'
p2558
I372
sS'g_2-si9_4GuAcY9b1FKgFQ'
p2559
I2578
sS'67WTpDa0RjRqiqxEegMS7g'
p2560
I5107
sS'u2NjjrFtg4ZMsoDXtDBqjA'
p2561
I221
sS'xhJBOPO5rYnvjhCNce4OHQ'
p2562
I2985
sS'Ry4Qxi__pgkvL2Dqdlolww'
p2563
I2581
sS'fX2eLAYd9ufkCrBJdZF3Ag'
p2564
I2582
sS'VuMLNUzSf0RCJIljqKowbQ'
p2565
I2583
sS'vH8UjE__eQzUUdDRu0fUMw'
p2566
I2584
sS'7'
p2567
I2966
sS'H_-K6erSJYtzg3ZEvOg3EQ'
p2568
I2586
sS'EbbOIQ5oAamS9D_B_7cC7w'
p2569
I265
sS'vbE3Ynwuja-jJOaEMrvLyw'
p2570
I2588
sS'-xr__Zqgwqhsfx0ThCn-ag'
p2571
I2589
sS'RvR05MnF76MnIjo32zFiFQ'
p2572
I2590
sS'3qRovLbdNAPbrRwL4I7MNA'
p2573
I4045
sS'fqCtFl1Rd86EOYAofxVKuA'
p2574
I2592
sS'XkdIYdBV5hosuVLBIpwSUg'
p2575
I2593
sS'xCliqEMU4NPeq3RrUWxxJw'
p2576
I2594
sS'_dC3wEoq02Op4lCyzYXSZg'
p2577
I311
sS'c3EZVfHXcnhnzfZoKHjN5A'
p2578
I2596
sS'ZmtW5Rb6yPZmEcVkdzq39A'
p2579
I1921
sS'np_PA4ejejVhk4klYvnMDA'
p2580
I2598
sS'B9j0m37WOQ7HYhZEc7AM8A'
p2581
I1001
sS'PI51J_fKhEfZKhi-MjWBpg'
p2582
I354
sS'Wn_-RcqyIGm_T4f8zyP2QQ'
p2583
I2601
sS'9ZT191GsJ7J_kF9AAcfwKw'
p2584
I2602
sS'_pGjwdjjyKyK8oah4ZJWjQ'
p2585
I2603
sS'MNeCv2lwx_iujQFUsNKLgg'
p2586
I378
sS'ol9Y185mjUYy-5Ban1lntg'
p2587
I2606
sS'0H2ggT37lK8hsbH8aGR1Ug'
p2588
I2607
sS'qiEgqJetYtjDxLZ6HwDkhw'
p2589
I388
sS'NvVSKFwcpc_GgmoJAdNtSA'
p2590
I392
sS'SsgDGJWBNvefjY0z8XsVCQ'
p2591
I2610
sS'0wYuREI8lQncPuDw5ztWIA'
p2592
I2611
sS'S9zMHMOyCZCmmZW1bgWE-A'
p2593
I2612
sS'CiYRhDyFbsDbWR45uv822w'
p2594
I2613
sS'q9Tyln685OEpIWFUdTxoYg'
p2595
I861
sS'to5QXyxyI84QCR9JJMXrSw'
p2596
I2615
sS'FlXBpK_YZxLo27jcMdII1w'
p2597
I2616
sS'CSOE-bxNDt7zlK84KisBjw'
p2598
I4556
sS'J7duvaxtVGPguXs5rlhDLg'
p2599
I4748
sS'VUAZE0zTUPG5rMJnTJcefQ'
p2600
I2617
sS'VExHvFxiVeHXgLkl4xZa9A'
p2601
I2618
sS'SeILUNsDzwMnnj-jgbCOQQ'
p2602
I464
sS'bpemawy6hdGv42lGJUakRQ'
p2603
I4512
sS'WNMUH0yaXFPiQ8aVE-Hq_w'
p2604
I2621
sS'A08xF_ykmsWQV0ypYA8wkA'
p2605
I3473
sS'DK57YibC5ShBmqQl97CKog'
p2606
I485
sS'k39ZWWkevk6oBuf1nqyttA'
p2607
I3772
sS'Ksk4gixS8T9N_M16AlblHA'
p2608
I2624
sS'NtaJYAQAlqI9IaBak_6biQ'
p2609
I2625
sS'ODSH1it5oAUPu2clIgOvyg'
p2610
I2626
sS'mTN0fVzlHxL5dBFgUy7G1A'
p2611
I2627
sS'xMYdgaWjAvVFej72f4qHxw'
p2612
I2628
sS'aAoacHNwqlpjGGnS82LxMw'
p2613
I538
sS'0cD3qzBX-jPynTHzg9oc3g'
p2614
I2631
sS'ufICbdVlGBGKTKkyy6uBmQ'
p2615
I2633
sS'jxdGL90JR1b6UTvfxwW9TQ'
p2616
I4775
sS'xqs2dAP6Q9NoAnghMhARUQ'
p2617
I2635
sS'QnIrewrXxFnssw_gG1gF-Q'
p2618
I570
sS'NOKGADhE0dtzEbpbIhGowA'
p2619
I902
sS'zYwpJGFLFwncmSc8U8TFrQ'
p2620
I2638
sS'xRBnIhqYTJZcEA4-wuZ4uA'
p2621
I580
sS'OSP4rSG7SmSVNMQDdqdi0g'
p2622
I2640
sS'4DM34I6xEqJsdAXcfwmHGg'
p2623
I2641
sS'Tm3SdDX5fa8O6NN-tciSkA'
p2624
I4753
sS'hFvLaKDNHMxHze13Hd-FZQ'
p2625
I2799
sS'ZMocFA2lNMJeiKjguUKu7g'
p2626
I600
sS'MX_sGTpLIQ0EOcvK73nRyA'
p2627
I2645
sS'5O3VvfDu_HDvgUviAqmTEA'
p2628
I2646
sS'xHI0MUS26PbAs92LYWKvTA'
p2629
I2647
sS'xXQTdJXPGOP-NUYctcQw8g'
p2630
I2648
sS'Vpfdjtx3c4T76tGEi-l0Bw'
p2631
I2649
sS'b0zgSrXBDq8hsamvmjqEqA'
p2632
I2650
sS'5UDpc2CMOgbf3GePS6SGVA'
p2633
I2651
sS'pypZb3V5TXHOnlTj-qLSrw'
p2634
I2652
sS'2qW-VO3UxZSU6HSHQ7fh7Q'
p2635
I2653
sS'0_NbnQy2AwOUDtDUr4uDTg'
p2636
I2654
sS'kiKyT3FN1H3d3jSTU5I3zg'
p2637
I2655
sS'sdnjNnQNpGB9OsX9fyJ0FQ'
p2638
I2656
sS'ETI4KOxJapBqCBCq0BnvrA'
p2639
I2657
sS'yhJ1SVBSjC_R2viEh5AbUA'
p2640
I707
sS'sAOdKC09kMqFfnVCrJRWvQ'
p2641
I4975
sS'RylA6VZUTRuMGBu4nHKbCw'
p2642
I713
sS'twnjVzD9eONjFKcwLzNStQ'
p2643
I716
sS'sPqHcRC--tRanPC-g4pNwQ'
p2644
I2663
sS'hFrsSpNCBPBQjX42S8Xn1w'
p2645
I2664
sS'hzKQOJI8-7TM-BstJpSVCA'
p2646
I2665
sS'q_QQ5kBBwlCcbL1s4NVK3g'
p2647
I2667
sS'Cuk2vdOMwTz71NjBuCF0Mg'
p2648
I2668
sS'K'
p2649
I2669
sS'kpL9GJYRkE_DYV6dsM-Y_g'
p2650
I768
sS'jX52sZoojxyYV2viWNyO7A'
p2651
I2672
sS'_an8r2dMKcBpZvyUnzEjAQ'
p2652
I2673
sS'hSMVQ7MSh6B0OgPxFQFO8g'
p2653
I2675
sS'aDYNz8cujkDdmbiOh95ANA'
p2654
I2676
sS'3wDRFdjpeq36Es97Zj2iVw'
p2655
I5164
sS'xtZMctl7AQNspIL_SF3guA'
p2656
I821
sS'Ww9IvgIEWvLhx5BtJkDtmA'
p2657
I825
sS'z8cf4pcU1vX4z1NOUCNrzA'
p2658
I2679
sS'lcRkGpx6QuK6c0NpYQv-gQ'
p2659
I230
sS'B_Via1bKGdvbxcOfd988EQ'
p2660
I2681
sS'FVeD1j9SeczVz-jZyPxBJg'
p2661
I2682
sS'nFW2ne4eYhh3PqUM7fxLOQ'
p2662
I2683
sS'8fKU-TNTEy9c7orkCuu0Cw'
p2663
I2684
sS'_vy7K2Q9X8p7Jl1OkY_JOQ'
p2664
I809
sS'5XAXkk6WENi0OW_HSSXRWA'
p2665
I2686
sS'muK3bAO2dRwP79SBnppQ5g'
p2666
I2687
sS'zjcN27kCVeK8K2ONe9Qt4g'
p2667
I2688
sS'InK8V-mwXl9QiqdFl-AO2g'
p2668
I2690
sS'DQYMtGFO1-DUGB0yX3a4Qg'
p2669
I4762
sS'Rw8VcGgVxJavNc1LePlDgQ'
p2670
I2692
sS'_H1VvAk65d2z-2-XuLHkmw'
p2671
I2693
sS'6APJlluOroa7JVxZtmt_6A'
p2672
I2694
sS'2XKlUjHGk9z-2ckFMcBEHw'
p2673
I2695
sS'EzXDaJjdCwMtWdBJiRcC6Q'
p2674
I933
sS'FZQXGfmkMASFWq3JnuQZqg'
p2675
I3862
sS'tORKMQQnMJLzCEsRXQikyg'
p2676
I2697
sS'kornl8kHXI9X86Blbs55rg'
p2677
I2987
sS'HuWEj615KvxRmjJq8JY7Ng'
p2678
I2698
sS'Kij3NAKr3xqUF2ylKH-5HQ'
p2679
I1936
sS'hLvInByM9UGS13NEaWnH8g'
p2680
I4927
sS'GMA4N1CjX_brPyyiW1gKtg'
p2681
I2701
sS'xoZvMJPDW6Q9pDAXI0e_Ww'
p2682
I4583
sS'pKEKIzZnAW5uu0DEzlYxTg'
p2683
I2702
sS'-G7Zkl1wIWBBmD0KRy_sCw'
p2684
I2703
sS'5hfKGSTC6gkamIfl6BZm6A'
p2685
I2704
sS'6hDWCnwz-MaZVpOEnM1XHw'
p2686
I2706
sS'lD7FJBAGwfv1QYxOhmhmRg'
p2687
I2707
sS'nV340H_xSy7m7icIS6776A'
p2688
I2989
sS'tkXqjDH2_3SvEn8QVaJavA'
p2689
I4393
sS'A3eAIFfkvfudRM9QeEaIJw'
p2690
I2709
sS'3C3zSdJyals9cpa9meBz6Q'
p2691
I2710
sS'O1p6LsCiTbT7d7AE6zkIfw'
p2692
I2712
sS'V7vAB8x1zeM-E2LeRMZSTw'
p2693
I2713
sS'hZfzVrhsCQ9JDAb2jYoJNQ'
p2694
I1991
sS'lSKKtZBmD0GIYbirCMUKtw'
p2695
I2715
sS'zPvo9z9yDT1Ls9z31a6uzg'
p2696
I2717
sS'PZVV5TW-Xb8oyYICVY1mcw'
p2697
I2718
sS'c9LssAbQdnf-fHacQSM4rA'
p2698
I2719
sS'Zti-aqj9gq7L9ixeVahfUg'
p2699
I2721
sS's1Hsu9cFf5qJym5-ujO2MQ'
p2700
I2722
sS'-y4O_E79Z6QwEI1p4OU_0w'
p2701
I3973
sS'ttauTXuRemnMf1SDhMgQZQ'
p2702
I673
sS'qIossUhtsJ55_ciRTEqiPQ'
p2703
I1093
sS'LlFFUfxzdoAAgILzZbD8Fg'
p2704
I1096
sS'8wHKhb9wqIHca43Xr1xJZQ'
p2705
I1104
sS'-khrbWmeaZDZ6hzTgJ4HpQ'
p2706
I2727
sS'xFbvPljRiYopjLF6G37Xfw'
p2707
I2728
sS'qF0zZHtqaMbFF3UePDCaHg'
p2708
I5161
sS'YSfAlm6XNaym-JOrRjv3Tg'
p2709
I3110
sS'drzHAHTHFnThHW0R0rOdDQ'
p2710
I2992
sS'xkmwzqyy4ZSMsEIejwq41w'
p2711
I2732
sS'Ct456aEICzDfn03MHZCzsw'
p2712
I1140
sS'kw4Q3Qfj_8WxjTNExSi1hw'
p2713
I1648
sS'moNhelvHfXSh2BtlpGiDvw'
p2714
I2735
sS'HRYhncbWiGmzzCLKUygVVw'
p2715
I2335
sS'vXAUaZSn7reLfjLk73MeeA'
p2716
I2737
sS'Jk-2JlKDKaZK2e5HV6Wx8g'
p2717
I2738
sS'mJCK1qpsCkKePozYIrIT-g'
p2718
I2739
sS'cx6CMeztrzFYAY0gpaC3Mg'
p2719
I4773
sS'2oNfIz8SOcUIclduAKXlwA'
p2720
I1195
sS'Cfpw8IGXyZcEOe4ncN_1Qw'
p2721
I2741
sS'vt4nvD7FNvIMel47ikMifQ'
p2722
I2743
sS'TA5f9rpPGllhrjhIor8jNA'
p2723
I2744
sS'NqBYt9pw7kNoytFQ9ATS-w'
p2724
I2745
sS'3z7E1Gg001_1YdZZYDnO2A'
p2725
I3868
sS'KxRn7pNI8hAdMoxDncZ9ZA'
p2726
I2747
sS'a_-cGctRb1Tjzkzw8Hp3_Q'
p2727
I2748
sS'ycddZn6VZ5aNptqdm2fBPg'
p2728
I2749
sS'ISirqOjZ0HRaKJqbIuhGRQ'
p2729
I2750
sS'_pCm_UXreHoX170r-Hj9TQ'
p2730
I1266
sS'W7ugM1NqQeB1Wj0DYE8TYw'
p2731
I1271
sS'PKEzKWv_FktMm2mGPjwd0Q'
p2732
I3719
sS'ayN7C_U3AwBfWN7I3YVA_A'
p2733
I2753
sS'wkrFqNxwTEEkG3mJV88Izw'
p2734
I2754
sS'xXFni1myxIQ-1n99R0bbvA'
p2735
I1401
sS'sOzeK0dE0BYx4Mc8dmoenQ'
p2736
I2756
sS'aXuxyyTDs5RGoFrhajPLYg'
p2737
I2757
sS'aREzu8wiB_1NYMzi_TgN0A'
p2738
I4073
sS'MpMQPuvABOgtZI-sE6ch2g'
p2739
I2758
sS'hv-tL4ViDfD-8SbjNF_etA'
p2740
I2759
sS'UyIY70WUem0Ka3o0Hjqtqw'
p2741
I2760
sS'fpRjFpHQLcmHF0VuDDdkxA'
p2742
I2761
sS'CaQy-zz10ajG7KkNSbXi5w'
p2743
I3872
sS'Vwt6fZzz0bFt3jlEY_S-Xg'
p2744
I2763
sS't2LoCqGXkr5mPtu2a336SA'
p2745
I1369
sS'OV6JZ1M5ov65F8PWQzhG-Q'
p2746
I1383
sS'AvdPjnRYKRVUA7I83WGKiw'
p2747
I1343
sS'SZxq6CqIpSCvl9wtGf_J0Q'
p2748
I1405
sS'NNgQ8fV5ARQgHw-Ob7l50A'
p2749
I2768
sS'Ytjon2aVUm09CMdfGJxZYg'
p2750
I2769
sS'LUNa9bXZ7G4lXs9PySc_Sg'
p2751
I2771
sS'shVyD312LNnLUvQEPdzo7g'
p2752
I2772
sS'_Wkf2RNDnBuqMOpzSqmZXw'
p2753
I1456
sS'4fM5kiW-haOTm3SCPYgs2w'
p2754
I4336
sS'-nnS8RW5JQ5upcjmDgK9iA'
p2755
I2774
sS'Rg3C1gCJsyshSpp-35HLbQ'
p2756
I1487
sS'Yd0Do7Ki_GQlUdLKuJr2YA'
p2757
I406
sS'VlUnhotMqY6msql_GMyvhg'
p2758
I1499
sS'0juzbrgcLHqobdK-OZAyiw'
p2759
I2778
sS'iyhqoE49PTX2VNITzpDw6w'
p2760
I2779
sS'TZelLnaGbHgaG7LBI6rfgg'
p2761
I2780
sS'pSooE9zTn8syeqMRmmfQVw'
p2762
I2781
sS'pVf-OLMqNG56cTtrNjiGZA'
p2763
I2782
sS'4F59l8scDgg6BQx0HGRtcQ'
p2764
I2783
sS'37muZxUZDqPKUmCYg5931w'
p2765
I2784
sS'bN9UQdyftA92BZAy_r3yAw'
p2766
I4000
sS'WSaXBx-Zei0Nq-9_8U6juQ'
p2767
I2785
sS'cHpXABKFJ9oWZwE4IK-Z8Q'
p2768
I2786
sS'nL6FP8Vu5MY5GXpg-dshqw'
p2769
I2787
sS'86JX_xYfGKXIngxEcDnUog'
p2770
I4505
sS'oH9K7eCuNsYr6MmlM2ZjUg'
p2771
I2957
sS'-hxUwfo3cMnLTv-CAaP69A'
p2772
I2791
sS'a7fTZRfTDOiep7VeLdxVMA'
p2773
I2792
sS'4EvMmwNoIcVCQapOGtOupg'
p2774
I4082
sS'd31wiC8swpcod_WEbvT7ew'
p2775
I1596
sS'XjrLnxoD8_OC9nnKg5H2_Q'
p2776
I2794
sS'6q3RKPxoCV8ZxSFkILg1eg'
p2777
I2795
sS'Ee3iS0puAl0aQWl76fGLPQ'
p2778
I2796
sS'cCqhFQsFsQpZ9iOD7Lgh-g'
p2779
I2797
sS'tCqYnhAdQhPO3JAAnc09ig'
p2780
I2798
sS'zNMYEX6gKpYeVb80ce5F8A'
p2781
I2800
sS'w-4nQ-PHW_U8CCR0S1jT_w'
p2782
I1638
sS'GYoYKIlYfxh7JmEReCxIig'
p2783
I2802
sS'DMa98XYCPM2j0bB67q-iOg'
p2784
I4779
sS'dXnlJ6ELbqIAfB79g3t3ag'
p2785
I2804
sS'43WiflwfTbmjizIfxvQ_jw'
p2786
I2805
sS'sGJvx1MTsetDzsnrHfJHLg'
p2787
I2807
sS'MccuFzWXDbEzW4F6LoMz5Q'
p2788
I1677
sS'CBG3um4DlmwtSphCo5ENBg'
p2789
I2809
sS'-9da1xk7zgnnfO1uTVYGkA'
p2790
I1691
sS'w'
p2791
I3005
sS'Gp6ZWHBieHTRm0I-TU6FPg'
p2792
I2813
sS'D9ULH8p1ZSjHpKJ6HytzYA'
p2793
I2814
sS'cDAdfpWUkpP9BB_aW4qjbA'
p2794
I2815
sS'GJ0H2kne3nnzYBavbH4RHw'
p2795
I2081
sS'__05rytNjsye9MBhqB0DMA'
p2796
I2148
sS'rU868DakQ4Lc6Hi8B49Zmw'
p2797
I2818
sS'dLOfp-2TAGAb78jGZPvMoA'
p2798
I2819
sS'fzy7c7bGIVJbfW8HqDBJXg'
p2799
I2820
sS'X'
p2800
I4181
sS'Imn8qgTWFKkaJDcNilhPOQ'
p2801
I2821
sS'J5CmFN4TULKvry4NzfAoNA'
p2802
I2481
sS'WoKCLSctS7G2547xKcED-Q'
p2803
I1760
sS'mgVXcePWy6zBIXqqDrhzxw'
p2804
I2825
sS'Hn8O2RQijYIVLFNF5VPWTA'
p2805
I2827
sS'a'
p2806
I2828
sS'3nIuSCZk5f_2WWYMLN7h3w'
p2807
I1807
sS'NBNIUJj60tVBKvWHhy3egg'
p2808
I2831
sS'vHc-UrI9yfL_pnnc6nJtyQ'
p2809
I4987
sS'P'
p2810
I3888
sS'h2LtQ1s5X20d0yrdqUMJ0Q'
p2811
I2833
sS'ukJIYNNYujvZa5bO4ONvPQ'
p2812
I2834
sS'9fOezqmM4pYOHCcPD1C0aA'
p2813
I2835
sS'rNjgVKaBh1PlUA6dYB6EUw'
p2814
I2837
sS'y3FcL4bLy0eLlkb0SDPnBQ'
p2815
I3507
sS'g5JvNSSkz6q04uvDcqSU_g'
p2816
I2838
sS'uIBhZTxEdOw1FRVpSJ45mQ'
p2817
I2839
sS'3Str0P10f6n6345N04LOig'
p2818
I3009
sS'xC-q_yh0XwcjRLimkS3RNg'
p2819
I2841
sS'HUmClClluKP5Ur6X7e306Q'
p2820
I2842
sS'upONKCWTxqYSfVj8kxs6ug'
p2821
I2843
sS'a8LG4S-7mRkia3uA_S8tow'
p2822
I2844
sS'fSvOdnryI9FPJ2ylcsE2ig'
p2823
I2845
sS'-3s52C4zL_DHRK0ULG6qtg'
p2824
I2846
sS'eg7ZVmUQSSTwuLhkdU8y5w'
p2825
I2847
sS'fgwI3rYHOv1ipfVfCSx7pg'
p2826
I2848
sS'vASaF47nWvCHEEDA8nfCVw'
p2827
I1941
sS'o8Lo2pvM19nyYPBBycgSVg'
p2828
I2852
sS'vc4mkEa6Ug5cQudS0EfytQ'
p2829
I2853
sS'dHxvSPU6PZqX1LQRXajGDQ'
p2830
I1386
sS'G-1uSi0c5ZdvZBZJBZVCiA'
p2831
I2855
sS'C1K9VHWJuBInQTNBEfWqhw'
p2832
I2856
sS'GmYe7X1js7ArVjFWP6-sQA'
p2833
I2857
sS'fVh5YZ4acN8mLqJBS8Q_Kg'
p2834
I2858
sS'8rzqG5NLuDlnqE49USzvTw'
p2835
I1976
sS'8DEyKVyplnOcSKx39vatbg'
p2836
I2860
sS'OPMWWa7j4sD_xuXE8_oDvg'
p2837
I3013
sS'40MywB-9aaAPmqRkThlaWw'
p2838
I2862
sS'LhnoqfSZobV3bch7of-Kaw'
p2839
I2836
sS'rLjFbA_E3GLrBIKN-in-Qw'
p2840
I2864
sS'oN23cWAm6Umyp19BTCc-QA'
p2841
I2865
sS'T0gWkTHWRChVUe_Dn1F8nw'
p2842
I2866
sS'RBzuT_RHgKFwBaU_-AdnAg'
p2843
I2867
sS'Z4cmKIau4Ie5ABXmj8wtwA'
p2844
I4340
sS'4bI4Iy6UCt9pWgOtaewbIw'
p2845
I2869
sS'tD1a0zdA1UvjBIH7vHKK3w'
p2846
I2870
sS'e7MEzEQMjqNPZfYthZKhwg'
p2847
I4703
sS'9kEi_TTQSIgP52D7bto7EA'
p2848
I2871
sS'lP2MfGE563YD6tD_egSZYw'
p2849
I2872
sS'FyaI7g6aIMBYeMQHLGqPXg'
p2850
I4418
sS'iqsUoSxTpzAxt8AX8OgSZA'
p2851
I2873
sS'Ar3bat-NGasrXDiS7WF8OA'
p2852
I2874
sS'2B9F15-xrqh4qgGADMo-yw'
p2853
I2060
sS'eqwYJSlHsGYaotedCtdX0A'
p2854
I2876
sS'f2c0zHEZf64GPxAcjP6pzw'
p2855
I3399
sS'fgnccvVwJi-_BCYye_HRpQ'
p2856
I3443
sS'8dhzj7Ulwf5iI835LjHLvw'
p2857
I2877
sS'ouODopBKF3AqfCkuQEnrDg'
p2858
I2878
sS'NOUfyJW-BAo_-Cbfo8edww'
p2859
I2879
sS'EPSzhOEb3ZfZ_XkgSD4j1g'
p2860
I4799
sS'krz6KPtOMU4Z0cMCGaacCA'
p2861
I765
sS'7FcpuLQHNFA9xz8B3PGYNg'
p2862
I2882
sS'paNtPIcJtA_7TqwC8q27-g'
p2863
I2883
sS'sxROlU5m_AsWXIy2U8IQ9A'
p2864
I2884
sS'q36T1j7w_XUKjVaV7q4rYg'
p2865
I2885
sS'mb_8jXannipO5T5V5kGXiQ'
p2866
I2887
sS'_dy1UXsoPG5Zq4Fhwm4GBg'
p2867
I2658
sS'Qo7qI5r1biiQLrmSpiqXpA'
p2868
I2890
sS'saAnWzpnc5i_yoWCuW9nMw'
p2869
I2891
sS'IXdmrbRu0veA-OuaP0URwQ'
p2870
I2892
sS'AGZSmqnEZ7u2seXvGwRQ6Q'
p2871
I2893
sS'jpIGlAym6z88W2xzHiK5_A'
p2872
I2894
sS'4c476nX33LrEFvtNToF4Ow'
p2873
I2895
sS'7tudfx4R-GoD1C8BkXOLJQ'
p2874
I3018
sS'YBT3EKUNN4IP8m4x7sGu1g'
p2875
I682
sS'WPw0LDmsT5HLc5itX8YLVA'
p2876
I2898
sS'CXl9uMlh4PTold4MxVku2g'
p2877
I2206
sS'6hHh46BGBVaQv7wtaxyz4A'
p2878
I2900
sS'IixIxVQJvJg7SDQM_WCMmw'
p2879
I2901
sS'BNLlJRu0dxwsJXekXogt0Q'
p2880
I2902
sS'C5Avkksj5Iom9saQyoEM8w'
p2881
I2903
sS'Yej5B4nd8PqpHMQcmCTDrg'
p2882
I2904
sS'v1lkfLlqy1BofyOcBTPDtw'
p2883
I2238
sS'z72G0C2kq0vP1vVX_EU2UQ'
p2884
I2906
sS'NcIVAyjpdXVNomQej-bATA'
p2885
I2907
sS'OUdq9CA-IvdMYncI9d5akw'
p2886
I2908
sS's07kSB4LD1Ml9Sj7E7lPpw'
p2887
I2909
sS'x_Ui2vAz1A3G9FmeteeyWA'
p2888
I2253
sS'BuLb6mmPyLqFNpWH6qWX3Q'
p2889
I5163
sS'n5NatlzIpc17OOvAFqujHA'
p2890
I5065
sS'-g3XIcCb2b-BD0QBCcq2Sw'
p2891
I2911
sS'kgKl_TSwiCJ3iX-g2VP0MQ'
p2892
I2912
sS'HUWPfofYNyttE2NqxAxJlQ'
p2893
I2291
sS'm7ulbgBB7Z-0STPpBMiOuw'
p2894
I2914
sS'vxZzibySSjksk76DS4sAvw'
p2895
I2915
sS'hbF8TACKA2WsyBPdqtYGTQ'
p2896
I2313
sS'QpCLG8Ciuh0H3GzutpJtJQ'
p2897
I2917
sS'z7KsQ_nfTZq6mm6ZPAk_Mg'
p2898
I2918
sS'ACUVZ4SiN0gni7dzVDm9EQ'
p2899
I2325
sS'-ycSxNIXm1IcfMbbTItRCA'
p2900
I1608
sS'O6EBodP3Fgu_n67efSKnBQ'
p2901
I2921
sS'ehzvSXsijzgxsYHvXeaS-Q'
p2902
I2923
sS'QEpNF4Hag6_W9Stc-1Frvg'
p2903
I3902
sS'vD65y5E3Az3bFc6UW4G1eA'
p2904
I2347
sS'sCiWf7Kai0t-x25CAz2DEQ'
p2905
I2926
sS'gby4gdTt11vz5jQz5OaDoA'
p2906
I2927
sS'fG7E6EO-Op2gKX5OsXrF0w'
p2907
I3106
sS'pnTiEaqM4slogpY97n9Kvg'
p2908
I2928
sS'_6up_KUwL5RsuWtK8fQxXg'
p2909
I2929
sS'lzmuDdCxM2_ERbxzZNikXg'
p2910
I2930
sS'vQAM8ZNOl9mzScxdwSd1DA'
p2911
I2383
sS'h4oOQdnfjpEHbygEJDsFbg'
p2912
I2386
sS'ZUzZti4jOTPz1aQIG6rhIA'
p2913
I2933
sS'iM65_UObxBvexo50FiSYhg'
p2914
I1522
sS'OzdqM7BbvL27AnrTZ27g-w'
p2915
I2935
sS'yhTt6DIxw41UnZ9sCuKC5Q'
p2916
I2403
sS'6MM9Yqn7UBM8tmpSHQHAAg'
p2917
I2937
sS'qPEtY2mmyK7GxxLwgDlnLw'
p2918
I2938
sS'1aU0r7X2luo9P8hfSpq6ng'
p2919
I2939
sS'FaYXjGgLtetpCCiKmEsq9g'
p2920
I2435
sS'6Jz-SAiZba0QmgrTQy2vUA'
p2921
I2941
sS'r-umhsSDHZ3yY8UnCy3yJQ'
p2922
I4578
sS'APnknK5EwtWrgQvlUVF16g'
p2923
I4711
sS'hpw7UrWf51aaWKbaGGJ2hA'
p2924
I2452
sS'4ULUWqda23gUl_VylJ2OAw'
p2925
I885
sS'g95Knje872Gsho0aKdqGRg'
p2926
I2944
sS'_UMTGara5YnzRIey3Mva0Q'
p2927
I2945
sS'PHfmvyVcxoccNyyMBUD3sw'
p2928
I2471
sS'JXHrhT72U6sZJQSkFfNzjw'
p2929
I2947
sS'RBghoKYk9yzgyJah7C_w7Q'
p2930
I2948
sS'tbycp0aRhRsiAVYUAVR_uQ'
p2931
I2949
sS'B-s-8VUnuBjGTP3d01jsyw'
p2932
I2950
sS'Jtfz1WbIB_FtYDkO3MtRXg'
p2933
I2951
sS'BWAKKf6hjoR3JxZPmU6UJg'
p2934
I2953
sS'ohoyf88TrW9DwcLW0U1K9Q'
p2935
I2515
sS'SgqocLuiOoIP5jB46KKQIA'
p2936
I2955
sS'bv5g9xdct8AW3AHQeyn7Lw'
p2937
I2956
sS'nx5-LzxIVXlQrKpWL_3PVQ'
p2938
I2527
sS'n6lAXF0lBgXLBvFXDvUuVw'
p2939
I2958
sS'TbhyP24zYZqZ2VJZgu1wrg'
p2940
I2959
sS'HorQ90eiUPfnesQlIraaJA'
p2941
I2960
sS'_K9sKlA4fVkWI4hyGSpoPA'
p2942
I2961
sS'wpDhuGVjSz-kNO0wFOK8Cg'
p2943
I2881
sS'lConjPFTZqz4zWELK_EJtw'
p2944
I1318
sS'Kp5KHBSmV-Htc9NeSjJfPA'
p2945
I2574
sS'fojptcVycoRhrLUU7XSSNg'
p2946
I4985
sS'ip33O1S-GUIDXHwcahhT5g'
p2947
I2965
sS'eigZw_Tn4TWJPSZ9UO9Auw'
p2948
I2585
sS'Ng3tIQhGCnLpQomyFOMTKg'
p2949
I5153
sS'JADdo9NEeO5Az9aOYbyvZA'
p2950
I2967
sS'3Qbp8jmLlzi268iOHyUFZg'
p2951
I2968
sS'Ec-epOsAWvjI6e90IlM8jw'
p2952
I2969
sS'NI2glfU_qscu4YcxtI8F9Q'
p2953
I2970
sS'W7o-AY6Hpyb5WkgxwGH_Yw'
p2954
I2971
sS'g82R2_L85cOxE3ADIUdRpA'
p2955
I2972
sS'CAp51YEsSQDJvfN4sAa3QA'
p2956
I2973
sS'XKvbfNylF6Yq8hpwqaZrhA'
p2957
I2974
sS'_l-iAhD0N_GVIvFJqq0brA'
p2958
I2975
sS'TZyqtfi28fOsCNXUBuvNbA'
p2959
I2580
sS'8_Hs9Bh5tgFdc_1ycxHChg'
p2960
I4068
sS'NvUeb5G_mSSxgKhEE_Hueg'
p2961
I2977
sS'ZYZNcugF3xUEGyLOVGiZ0Q'
p2962
I2978
sS'ZFZB-acrqGQol0PXCgd3pg'
p2963
I788
sS'w0Yyvns5BCIL5s_7JuFrug'
p2964
I2980
sS'WKXB06num_qLlTbItz9wiA'
p2965
I2981
sS'FCGCxiXBrj1p_8cscTeQXg'
p2966
I3031
sS'HipNu3vK_MSJ-IIGsKFbfg'
p2967
I2983
sS'g6kWg8sohsmwrQRDaaJakg'
p2968
I2984
sS'dqucQwA-CHWhUczwqIxKKg'
p2969
I1150
sS'_28ppFytgRQB_8s9NelfYQ'
p2970
I2986
sS'JC99U5y-KAchZIjBhf_DiQ'
p2971
I2830
sS'PipGc4TdxurGizJ6CKmU7Q'
p2972
I2708
sS'k55-QGGiZwKI0l6mY2w_lQ'
p2973
I3033
sS'HkgxlKEdsdEK-qsiBgrq6Q'
p2974
I4892
sS'd_-ypwVYiP-DswClkAg8Iw'
p2975
I4010
sS'qruOUB36ZPf9zztkemL2pw'
p2976
I2991
sS'siSrMiAD_xaGUT9xATTZKw'
p2977
I2731
sS'ntJ0mR5D4JqJOzsYZV-cxw'
p2978
I2508
sS'2vFrtkBF6uy10ksMQT-o5g'
p2979
I4817
sS'Jy7BwojX8fRcq14_Lmigcg'
p2980
I2995
sS'XRqV_H4z-TPPuGOcUjhN8A'
p2981
I2996
sS'PvSzDcag7vo1e5Zz7SkzMA'
p2982
I4539
sS'WYX_NXU_0UjLwihc0B1_Vw'
p2983
I3915
sS'3HSmHE-FQZ7b2kyfa1e64A'
p2984
I2998
sS'sS8FvqVkF7HoT022ptEV3g'
p2985
I5034
sS'E_GAXhVA1_lVC2aFpMQElA'
p2986
I3000
sS'XFGqNlqKAaaNFxrpkyMN5g'
p2987
I3001
sS'TgCW5tyinPDvZWE5Sqwwgw'
p2988
I3002
sS'A3Rahgq3ufx81IjbEfAbGg'
p2989
I3120
sS'DDwuwjZHsTmN7-Fju7D1qw'
p2990
I2811
sS'TMLVzNYs-zwwREudyvI08A'
p2991
I3006
sS'OcUC2eFhJJK9mG6K4abmXA'
p2992
I3007
sS'Sb9DPvhVmFJy9jJ2dLQ_TA'
p2993
I3008
sS'TWqf1_xAIaYzh-OtrbQ6rw'
p2994
I2840
sS'RR7b3vK6zOfnXRo-pd3pUw'
p2995
I3010
sS'BeoFmNoFuz-h8uso-J2_lg'
p2996
I3012
sS'qJgae_Bqpwx1qm8-bXA_cA'
p2997
I2861
sS'LtGu1ZOeK_OwAkDPIkIl4Q'
p2998
I2104
sS'_03Q2fQBzAlO1xTBxAQBBg'
p2999
I3015
sS'hLVq7VSJBHZwqurwWoCmpg'
p3000
I3016
sS'TQcycwYMygQ8SvgXvgW3oQ'
p3001
I3017
sS'PRIiGqJFSx1G8rXPr8sryg'
p3002
I2896
sS'TpZN51jtAZTu7BjYxTfpjA'
p3003
I5121
sS'Rzf35jKV8e8EJdssrae_AA'
p3004
I4898
sS'JDlFVpvClWyL067zSGMRkQ'
p3005
I3021
sS'TGdnpYdQgPnKAd7JoC37pQ'
p3006
I3022
sS'mi9bNGzbfPD14WzWog6w5g'
p3007
I3023
sS'I7TQJq7cn8TmQgoDZNS4Ug'
p3008
I2934
sS'9GhiQOLaM6ZGrrFG-SppwQ'
p3009
I3025
sS'BECNL-8EhodrowG0dryyWw'
p3010
I3027
sS'P3usQcIegPCl-cdH4IDirg'
p3011
I3028
sS'pQD0yqJFcOkFDCMkPbXARA'
p3012
I3029
sS'aMOZOQCMY5QMB1UpV_REkQ'
p3013
I3030
sS'iYwvHpgiLqBX2dFJhx7zBQ'
p3014
I2982
sS'PPQd20F20eIWBdnrf2iArg'
p3015
I3032
sS'-jt1ACMiZljnBFvS6RRvnA'
p3016
I2990
sS'aomkMAGFrL-gD6cqQjB4bw'
p3017
I3034
sS'qD51vvp5Zf5DgPEGy7yfDQ'
p3018
I3036
sS'RqR1bGDgdOPyHDnI73LeFw'
p3019
I3038
sS'9oAk1mL3fzC_2ixGcSkp3g'
p3020
I3039
sS'UVxY0iyPaqY7s4BSFtt-xA'
p3021
I3041
sS'tduMSflg1bhAFDgWOr4MPg'
p3022
I3042
sS'B5RcWUztezeNkW-_ujqViQ'
p3023
I3043
sS'97kNLwiDqDOO_hO-V0sptA'
p3024
I3044
sS'4UjS4PxlfrUOATK4eqP3gg'
p3025
I3045
sS'rTJ3EecGoQNbfFj7mqjDmw'
p3026
I3046
sS'Fd3GvZTer-2_EwMzL3ptAg'
p3027
I3047
sS'g3HFkZgloxLQCvoJ5Zs5gg'
p3028
I3048
sS'_vk88Fk8e7_HkXSMb9M9AQ'
p3029
I3049
sS'seR0RklSV0nbfXv31LtSxg'
p3030
I3051
sS'OlZJq794cGTPfYomFo89cA'
p3031
I4899
sS'cH8ZLnjrJgtd2AcENWgBFw'
p3032
I5136
sS'lDKbTlZqjIn2gn490gU2HQ'
p3033
I3053
sS'VwNhTezcwcgPMbp1UoXmTg'
p3034
I3926
sS'TiD1JrLX-LiCdQabMwj4Fg'
p3035
I3055
sS'koq1nswcUyMFXiud3PEYBQ'
p3036
I3056
sS'7IyZBsbOzUqkdulWTvieAg'
p3037
I3057
sS's_rK7Dda29Gy6clJ1TFNmQ'
p3038
I3058
sS'38dPWgd8DRM-I5x4Qr6Fsw'
p3039
I3059
sS'Gonq8DOHTm_1uoKuG_pvJg'
p3040
I3060
sS'r8hZk0Gvh_fWmPzECjQW1A'
p3041
I3061
sS'K6zfR8CUCEj_N7WuM3U23Q'
p3042
I3062
sS'I5PaiOdOl0lQKhDJbpc8pA'
p3043
I3063
sS'SmHCmowr7X1LvOKs7z4nyQ'
p3044
I3065
sS'37HswRimgBEf7_US-c3CDA'
p3045
I3066
sS'Sl13Fnu5f0FY4Vpc5LVDyA'
p3046
I3067
sS'fiGqQ7pIGKyZ9G0RqWLMpg'
p3047
I3068
sS'1h_UV-EwzmqZIB8uErf8ow'
p3048
I3069
sS'fEoBk3QxwDp38drtjndYhA'
p3049
I4085
sS'0ximOW5EKh12QqTPfAYXJQ'
p3050
I3071
sS'wwh1D-yDvJDrcdM_9-FhYg'
p3051
I3072
sS'b'
p3052
I3073
sS'n86B7IkbU20AkxlFX_5aew'
p3053
I3074
sS'GCuDiPUKYxhgFHP5LqJa2Q'
p3054
I3075
sS'h0fNBxo0qFtrxX59PIzv1g'
p3055
I3076
sS'YslR3U1iwphOFYqvwSZ4cQ'
p3056
I3077
sS'oBhQMjrT0zdSLdlybWRA_w'
p3057
I3078
sS'93vyTaJgzQRQO4Zs9Cg_pw'
p3058
I3079
sS'JA-gdOUbxEdUAdvPkWhtfg'
p3059
I3080
sS'hOPhxpCvB2bKjRoMG16OCw'
p3060
I276
sS'gLke-4oih1t7urvoQAENcQ'
p3061
I3083
sS'TM9NWmEEEvG2ZV4-UQ3UbA'
p3062
I3084
sS'q2NZ70jWHUkZVcC8Mj5tig'
p3063
I3085
sS'8nSAbI-nUi0GavThHTEkJQ'
p3064
I3086
sS'gOHJswZrdJUiPjjWubTk3w'
p3065
I3087
sS'NRGJ4IvauajqqCbhT640cw'
p3066
I3088
sS'lO_L4Otm-hJQ0CvbDcynxA'
p3067
I3089
sS'EOpLn0OaFDGE2gheh7PfDw'
p3068
I4596
sS'idJ35gltZ90eFFCm2YvtXQ'
p3069
I5167
sS'rTyn3YHLhXyIJwRfqeRxEg'
p3070
I3093
sS'5wf-b9hqWbWWPMg_FU50QA'
p3071
I3094
sS'PrwnAL82LL4Ewt_wJpHWCA'
p3072
I3095
sS'06SzL3l-yjv_gPYQziAlWQ'
p3073
I3096
sS'KheemzNvPqrxDtOqdrOQ5g'
p3074
I3097
sS'jySfdWP1M2peTweCi17zyA'
p3075
I3098
sS'NrCzwcvmkKR-b4gNehV8Sg'
p3076
I3099
sS'QnCWtjNiSIRXxSWujG8oBQ'
p3077
I5010
sS's19c8t_yAmFrby90LjDk8g'
p3078
I3100
sS'IcDn5f-a5mt7v3WnFBvOdg'
p3079
I4810
sS'8WwkolpNhqNbQhAa0nZi8w'
p3080
I4582
sS'1wE7oHKgNOLPM0QWS3jm9w'
p3081
I3102
sS'5zzP3HvPaGjtVYiIvRd6Mg'
p3082
I2444
sS'EIt66bYmFr_2kbs5qsL-0Q'
p3083
I3104
sS'6Rb1cZiuhBPILcHxfbInig'
p3084
I3105
sS'LYOvyedhKD3eqs4dJrp6yQ'
p3085
I2224
sS'1EiP4lBBtN25BB9dP_dWnw'
p3086
I3107
sS'LkP5uU4ncr5MgNp8ercSCA'
p3087
I1433
sS'TJoILHOxI_K5kJUye0BtbA'
p3088
I3671
sS'4hj-rUKdY20Un_h37RptjQ'
p3089
I3109
sS'BRBYARACCQoxvdLAFTzpbg'
p3090
I3111
sS'yUPA1sL2HgMTT2aq4O3ENw'
p3091
I3113
sS'4RUXeyp_Af2C5t9JFyJlBQ'
p3092
I643
sS'EMMKdK1cGrLSo08wgSYHJQ'
p3093
I3115
sS'VWJ8PSz6Sg5_AlBvQyGvpw'
p3094
I3116
sS'O1Q3E7A4CshJ0QIlPNpRTg'
p3095
I3117
sS'xJpvRrk04rb4rgWtMXaPUQ'
p3096
I3119
sS'AvC5XQAElcGAAn_Wr5auEg'
p3097
I3121
sS'0gEDwhSUIWIBz23MbLYMig'
p3098
I3122
sS'-vBbg7fTK3y8W0PtpzlLWQ'
p3099
I3123
sS'nal0Ev3PeRVCdMgU82PEmw'
p3100
I3124
sS'qPBqJDoC_o4JDuIL9CQCeA'
p3101
I3125
sS'a5XvEtYqTIHpRarDlJ1v8w'
p3102
I3126
sS'HbXFXjIwTqYM7mM9bbqaNA'
p3103
I3127
sS'R-i4F_rOYAMipGlvlP7A-Q'
p3104
I3128
sS'yauSuFScxL-fSsimkoN76Q'
p3105
I3129
sS'6esVcPs_-ijZit2yAR2uGQ'
p3106
I3130
sS'gPh8rpoOq2hjyhF2pAdn2A'
p3107
I3131
sS'bW6VMyB5r05Yze44Ora0pA'
p3108
I3132
sS'0NZLdG_w3OWW0QsbnuHUqQ'
p3109
I2507
sS'VV58UIiOwnqUbL2licWeKQ'
p3110
I3134
sS'Cue1uXN_0nIQGX-4J7b_BQ'
p3111
I3135
sS'Dxdev0VPVFpNLvrpKzu8SQ'
p3112
I3136
sS'M'
p3113
I3137
sS'3k3hFdi0DqlGMSJ4Fmxknw'
p3114
I3138
sS'hTEKSL52x8cUUlHpUEx4lw'
p3115
I3139
sS'bs_FiiqQNyUg6Fh_WqyLyQ'
p3116
I3140
sS'sXtYdtCP3Ew1gHfxJxk51w'
p3117
I2558
sS'lx71Q1-Y7xd4QSK5lUvIIA'
p3118
I3142
sS'Y_2jMUKz6pvJ0JSWG3u10A'
p3119
I3143
sS'B4AKXnlMed14BxducGS_Kg'
p3120
I3144
sS'z25c9TyWY1TdVEGxkj34jw'
p3121
I3845
sS'jt49xjEjQisu6wTTGn6B3A'
p3122
I2105
sS'CRlIhFoFQZQPw0GAU65YsQ'
p3123
I3146
sS'8XlB-J73QOFV91Y0e1FKPg'
p3124
I3147
sS'eUmVXP9UnoWtz9NSBwY4jA'
p3125
I1892
sS'diDXW06J_Llz_Q8gY2bfZw'
p3126
I3150
sS'TviI9ML9TJmA0BBRclweeQ'
p3127
I2770
sS'ZIlZhl7xT9gztKRlWk8Uvg'
p3128
I3152
sS'FREeRQtjdJU83AFtdETBBw'
p3129
I3153
sS'D-rKFBb1s4_4vpDA9Wjiog'
p3130
I3866
sS'XrlYaTPoZTpi-iluryFNcg'
p3131
I3082
sS'xiT-b8Om_k9NfDtv6hIzRg'
p3132
I4461
sS'rAAT39HF4khu-OdxBSr0jg'
p3133
I3155
sS'bnPpoAsVbULVN8EsUYGGCA'
p3134
I3157
sS'jXXY61CrSzXQmDeUG7aA6Q'
p3135
I3158
sS'nwhBcly3mJKHUPMrg0rttw'
p3136
I3159
sS'yVxVGS68r_IDNIFWTK0JTw'
p3137
I3160
sS'lcvzFfl-fw3gDyBQlNT9hQ'
p3138
I3161
sS'CXwHjHxwGDzRTgvU_NdLIQ'
p3139
I3162
sS'YqZniLami3yOXF3CSVxaFQ'
p3140
I3163
sS'gH3JDpHQfVcMEGaAaCJPjA'
p3141
I3164
sS'LdWIjNvjdaAoAfpQhT6F9w'
p3142
I3165
sS'QWxW_pApmpY9iPApC8P-UQ'
p3143
I3166
sS'T5KBc5QbwZ-Oj9ApE4vZJA'
p3144
I3167
sS'-f6amuvfIVS7VX65BqZ6pQ'
p3145
I907
sS'0lDl1Jg1Qz2KhvkfJKk6fw'
p3146
I3169
sS'PePWIBvMyZ529fhrJLzgJQ'
p3147
I3170
sS'8qRUM-dShbtwHfjAJdpPRg'
p3148
I3171
sS'ElDfk_42hMdjU_weLWRKtA'
p3149
I3947
sS'e7V5B3xq3rRNxmABwFKqVw'
p3150
I3173
sS'6AKefJkxjEulK4TkmrLyEw'
p3151
I3174
sS'5_FJ63KkHxrxrSziNZG2ug'
p3152
I3175
sS'-3i9bhfvrM3F1wsC9XIB8g'
p3153
I3176
sS'sOwRf2x572jG-297PGTqLQ'
p3154
I2368
sS'xxMg8OyUtXFNJ2QXDXF4dQ'
p3155
I3178
sS'atLaTfIk1efrcO71SEixJw'
p3156
I3179
sS'HQG3no8C5U31z-k1MaYCqQ'
p3157
I4852
sS'-8lbUNlXVSoXqaRRiHiSNg'
p3158
I3181
sS'P3FlF8WA18fTXSj77AX69g'
p3159
I3182
sS'iOLGIwzCBNHyYyA0AQhFnQ'
p3160
I3183
sS'HEPfqAH6ObF36Fp1B9Fi1Q'
p3161
I4797
sS'f81Y2EzuRqefayCrL1Ra3Q'
p3162
I3185
sS'irFk4niiXe5iR-C7mgjy_w'
p3163
I3186
sS'x0i6NgHySrXWgb17gVMTuQ'
p3164
I3187
sS'Iec0Qou1MH6zk7I4y_4nrA'
p3165
I3188
sS'EJPBXvEdaodsPQuYBT6low'
p3166
I3189
sS'JXt_vd2l_SkhFZdablieUg'
p3167
I3190
sS'uQSBQI8hKuNRxyxhPUsgLw'
p3168
I3191
sS'W7DI4hNfWCw1ymJh98plhA'
p3169
I3192
sS'cZzrlxbs_JaYW1hraGfzaw'
p3170
I3193
sS'z3n4lF8oWYahp-3Hx56d7A'
p3171
I3194
sS'eysCMbe10JZYa32bCYYozw'
p3172
I3195
sS'w8dy-ibFrNXBfA-TdQDCIQ'
p3173
I3196
sS'XgczxfTQzzwN62ciFn6Ysw'
p3174
I3197
sS'hd-S4mtrPY9Q6iuBJegnOQ'
p3175
I4863
sS'2gcFiDuxzOY2cMKlVLfi1w'
p3176
I3198
sS'KTK_ws8lu_TWfR7DtDWjMA'
p3177
I3199
sS'L9ZJpCQgXzfNXiJI9ahyZw'
p3178
I3200
sS'30QfAHXX77SvrvbD09Z3Dg'
p3179
I3201
sS'yQhbPlpPUxja-S1bTKAyFA'
p3180
I3202
sS'Y61y11_nYsbc2UWjDh8ZEA'
p3181
I3203
sS'6qlkQhQFpuX7WXboTv9-dA'
p3182
I3953
sS'Q6Dcxo3_lNCzkqK7J3FL7A'
p3183
I3206
sS'RQR-bncvVssevK_WIPWvCA'
p3184
I3734
sS'NKeKoFBQfYUA0zNSZCrIzA'
p3185
I3208
sS'8'
p3186
I3209
sS'i7E48NFYrYduLu3x0baHVw'
p3187
I3210
sS'tqIJV0lrKZbN37mHUNflEw'
p3188
I3211
sS'wnFWoQ63F9-ohUQ-C0AeIw'
p3189
I3212
sS'2TN-jjYg98_cPNft8OJHCw'
p3190
I3092
sS'sbVdImPlVRuf3-byN1F16A'
p3191
I1295
sS'29K-usmZfVDeIaQ85EG54A'
p3192
I3215
sS'WJR8f_QNG1kuPq5V6RxeFA'
p3193
I3216
sS'9jZAXnAaulEC40wtEZK6Fw'
p3194
I4682
sS'aVaa64zb_-d6VTY3XcXyIQ'
p3195
I3217
sS'pZQ8RxOeD4rY_tRTOoPSDQ'
p3196
I3218
sS'ATCCIn13BcH2xamvZBCLlA'
p3197
I5089
sS'LS50MEzvPY2Q90kPr0rbQA'
p3198
I3219
sS'K0zrsXqu55JPwT4dnvNUDg'
p3199
I3220
sS'1I4dLkkLvoJ4Y43Js88YMg'
p3200
I3221
sS'0CVrD89fxmo51DpzPsC6rA'
p3201
I3222
sS'uAb_Pcsqmjk5vLTiGbKfeQ'
p3202
I3223
sS'WhptvJZbFVZ9EKcUN7s_GQ'
p3203
I3224
sS'glLl_89bcfvbER7AcwsfRg'
p3204
I3225
sS'MnYfi2DODiZkLIwJFuwB2g'
p3205
I3569
sS'le3Xn9Mheb1hNxWurF7RSw'
p3206
I3226
sS'lYp818T-xh8Ss79To5Azhw'
p3207
I3227
sS'Yjer78RnYr7OCzirgdcOaw'
p3208
I3228
sS'huHPQSQgw4kFakc0Vq7TDA'
p3209
I3229
sS'WJFOHu6YHrJWocfW1qk4pg'
p3210
I3933
sS'lHnMp5AxsBHyky2RG238Uw'
p3211
I3230
sS'CXYdN1Ke8KkpOrqcNA-6sA'
p3212
I3231
sS'_fqINvA1SYEbqC_RR-egLQ'
p3213
I3232
sS'WKU4ARVrsNF8jpitZqNZpg'
p3214
I3233
sS'8qpFUPR1wd3uz8N1QaWj_A'
p3215
I3234
sS'c2gSfgFQcR3k_USm228DZg'
p3216
I3235
sS'Y6cYyzcNQcuNI9hkG_KXNg'
p3217
I3236
sS'YDss19FKlGBB1cB-9u4IcA'
p3218
I3237
sS'rhckKlErcgXF9TsWOa929A'
p3219
I3238
sS'DHRupjFv4GyD0tEdj-QNjQ'
p3220
I3239
sS'oXLz0_Cx2735wXgEgHr6Yg'
p3221
I3240
sS'8drMKNHWavs2g6uf0pLtvg'
p3222
I3241
sS'KxrKVxdXGkfMJ9XwJZzoLQ'
p3223
I4536
sS'B5mpfVCviyUl9Bsdef5jUQ'
p3224
I3243
sS'JggphOM7FIbvUyPcsfcNTw'
p3225
I3244
sS'x'
p3226
I3245
sS'5Y5KbsI5buMcNh2hTFaRpA'
p3227
I3246
sS'GpV7fg9-iadPX5HI5Qh89Q'
p3228
I3247
sS'x2-TP8fd4G0OqkgDyKt3IA'
p3229
I4859
sS'wLRP1iW4aA1diW3Uvt2pGQ'
p3230
I3248
sS'Lp3VkVECiewJKV_pXzONqw'
p3231
I3249
sS'Qx-5FRNpL14H2TtIKmB1kA'
p3232
I3250
sS'FZTkBavnUWVQRK3ULOxePQ'
p3233
I3251
sS'zI4hbgy-8zXGRWAWz1t3mw'
p3234
I3252
sS'5v6juPIOisfmogp7QSso-A'
p3235
I4709
sS'MmQv7nXo3EKVW6ZbFBZ08A'
p3236
I3253
sS'qRU5enRejimk46mV2iZBlg'
p3237
I3254
sS'-uybOghOlhc_UHEZvkyShQ'
p3238
I3255
sS'XjUA5Gh8RXjA_TWpjahL2Q'
p3239
I3256
sS'cty-VP-wvpUbsa-nPGc1CA'
p3240
I3257
sS'I9PpxV1JrGATW-u3gew3Ew'
p3241
I3258
sS'9LgnOncogsW2g3Ko0M8DhA'
p3242
I3260
sS'mEjPkT-wxU8kBm2zj2Cmzw'
p3243
I3261
sS'bpbKdifYYdtlxET-yTfYsQ'
p3244
I3262
sS'1Z2CVv2zDnb7Dg_j_S7rOg'
p3245
I3263
sS'5AyaCHkJaeMLmjzu-NwZyQ'
p3246
I3264
sS'WOlfaz4vzUNvNxCScXeYrg'
p3247
I3265
sS'2wc4Krfm3D_yGjz37XUtow'
p3248
I1605
sS'PNa2-EjHe_ApIgZXD6kxBg'
p3249
I2689
sS'3HZKZ5EEkkPmc7baT6zcbw'
p3250
I1938
sS'gfR80SvOyWL45S8vPMZxNw'
p3251
I873
sS'ODsM6-_BvHt6-cqNylJn7g'
p3252
I3270
sS'KO7CuK8p5u4AFGQ7voXe9g'
p3253
I3271
sS'glCZpRr0LSMssbkOYGXpbQ'
p3254
I3272
sS'EmoJfIs864LJFa6fOjhxBQ'
p3255
I3273
sS'ugNQV0isqQSAuuGzoK87sQ'
p3256
I3274
sS'1xJwMqmvVXPwY7yEVQIc-A'
p3257
I3275
sS'c4K55UM0pZvreFSSQUjWxQ'
p3258
I3276
sS'i4GAomrj1oyAvv0aS9z5Kg'
p3259
I3277
sS'fa3P8dibTRU8QG-XwVMigw'
p3260
I3278
sS'q3x249UGWYz0x6FsYg9Zmw'
p3261
I3279
sS'3SGQKsO1J-jcRIp3WNxCeA'
p3262
I3280
sS'Kx4RtLVvwFuH2F4hWKB0ig'
p3263
I3281
sS'7JpPvfDAE_14vA1xgFOFjw'
p3264
I3282
sS'R5Nh8wSPHCnPLXwpybQOiQ'
p3265
I3283
sS'xywXoLnG7qWIayFu8oZQgQ'
p3266
I3284
sS'mgpCWdcyglWx6QOxQkyamQ'
p3267
I3285
sS'hh3yIbr3Yr7E_IGsIreGdQ'
p3268
I2377
sS'3H2VbXZ8upvCFncbi5xTcg'
p3269
I3287
sS'd8_DhzMGHeU5SCAqfJX6cA'
p3270
I4909
sS'h1KzT38UnfzR7maSi7oVUw'
p3271
I3288
sS'D4Eznn83MRWUK39n5WI0JA'
p3272
I3289
sS'OfdX0DGrAET9jqn_7gkXww'
p3273
I3290
sS'ra3OzaxpILytSjHRRKoT8g'
p3274
I3291
sS'uCuB4r3H8aN4NlrunhCjgg'
p3275
I3292
sS'vJU7VP831iKtwdwdD49MWw'
p3276
I3293
sS'ioLQrCvCBz3HmlKZeFxbJQ'
p3277
I3294
sS'qtTd_VDFXoeNkJKrtQ4R2g'
p3278
I3295
sS'tSdz6ZkR0psn41cCaaTlYw'
p3279
I3296
sS'p0UbZ13W0IxJUy-hDB_OqA'
p3280
I3297
sS'pWmXVpOnQnN03BXEFozf9w'
p3281
I3298
sS'sFRnh5U0bfTe8Ox8PygjHg'
p3282
I3299
sS'lZ0BZ7NWLBK5XgCQUA1ICA'
p3283
I3300
sS'JI6T6niNLWzks55uON1QDg'
p3284
I3301
sS'xj3u-L1K5Dhq511eA2Z6Gw'
p3285
I3302
sS'wynNf6k0bPnXzQ7drMPzuA'
p3286
I3303
sS'4bQp5jnqpoQpNfxMg1y_xQ'
p3287
I3305
sS'PU5QaMADa6N_9ZoQ04ZjOw'
p3288
I3306
sS'xY-_P4jUJD4zs4agSjWbrg'
p3289
I3307
sS'mIo2cFs_89a7i0DWHT9F-w'
p3290
I3966
sS'eLOliEa71F4o0P39lWuk9g'
p3291
I3309
sS'mJbSn-Av4gnux0QkvE5uVg'
p3292
I3311
sS't9MtHB_hwKfwkW0Ie1yEoQ'
p3293
I3312
sS'pwQ8E-hbDUJe3qtKt_IBBg'
p3294
I3313
sS'dr_mce0J8Q-BLLOA23KuAQ'
p3295
I3314
sS'qKay1aN-MaYIQ1q5k8tW_Q'
p3296
I3315
sS'uw4hqYj64A-vHmxltwJ6cA'
p3297
I5002
sS'c'
p3298
I3316
sS'UJxYZefi7w4FHbm4CdH1-A'
p3299
I3318
sS'2-XLTj0Cfd81_XlmHo02Aw'
p3300
I3319
sS'5aPp3PnDs50CfWMapd7yEg'
p3301
I3320
sS'aToXreIHebl82eiRptU1-Q'
p3302
I3321
sS'h2nJxjwZlC8aXNEh_puMpw'
p3303
I3970
sS'ir689oBNmrJXOspb4yq_Jg'
p3304
I3064
sS'yhdwc7zvDAUwDxMxKWIluw'
p3305
I3324
sS'iDlkZO2iILS8Jwfdy7DP9A'
p3306
I5154
sS'_vbEQU_xD95RZ-7j93z9hA'
p3307
I2595
sS'QtT8tBXKhZI3Ehe4oUfbGw'
p3308
I3326
sS'c2QDMrUK9B9-vLRqeJ3Eww'
p3309
I3327
sS'r1sLj85JPwZ_KM2eviuLVg'
p3310
I3328
sS'YhbYCLT_yy9voCXKLYfy2Q'
p3311
I3329
sS'Jw4OHr6HibJeEIMfAxc1_Q'
p3312
I3330
sS'U13tLFucJNz1fNv_Xgdj0g'
p3313
I3331
sS'mydWDBBNHdXcq6WO8tfv_Q'
p3314
I3332
sS'IyIsFkVY48JWa01inv-7zA'
p3315
I3335
sS'mZokz37TaR5jFgMrx4WyFw'
p3316
I3336
sS'UsdA_votOEWq-WcpA5XvEA'
p3317
I2166
sS'rR9bE04ACuI6d2PqGEWMfQ'
p3318
I3339
sS'WecdW6ba1-V2MgR19Mo7cw'
p3319
I4881
sS'KIq2JTWwD_ol7DwusTCH_g'
p3320
I3341
sS'Gpztz4quXP_Eybx9gkLTSQ'
p3321
I3343
sS'hy4uEHgITEfzxrXzyDhCRg'
p3322
I3344
sS'CqkdpG2tkCPQA69umlAHsA'
p3323
I3345
sS'J3ucveGKKJDvtuCNnb_x0g'
p3324
I3347
sS'50wPDE_Gk936RYV7i4FJhw'
p3325
I3348
sS'M6id0az7Q4wJUZyZHibkTg'
p3326
I3349
sS'LGa1GmTItb4bu6HI7KPKfA'
p3327
I3350
sS'7Oe6ikklTjVBbEFw9emLcA'
p3328
I3351
sS'alLsax2aJFT23V5E4SfW-w'
p3329
I3352
sS'Z95FWe3KNicCF0QWSVUfrA'
p3330
I3353
sS'KY18eaYFW9IS5Yan4PSX4A'
p3331
I3354
sS'z9orBUbC8xTSqVIIxvZRjw'
p3332
I2880
sS'taPq7IxYskEWH7Vfc261pQ'
p3333
I3357
sS'85uM-cor3VXCUyVFEe0YNg'
p3334
I3358
sS'njgBnm5Czhsgj9xOi-C0Sg'
p3335
I3359
sS'LOi1qbpl2hTP0cwSDDuyBQ'
p3336
I3360
sS'CfV_axQI2rK0eHB9FfG_GQ'
p3337
I3361
sS'GVWRzFkfbDYrbKjggZowyA'
p3338
I3362
sS'33h9Jv4VKbbxB42CUD9WQg'
p3339
I3363
sS'8BV5Hm4Nygujx3cdoP_EtA'
p3340
I3364
sS'OoND3zlU8KhVuPSE7N6gmw'
p3341
I3365
sS'uih53bykBGPNn3Lv09ofkA'
p3342
I3366
sS'mV4lknblF-zOKSF8nlGqDA'
p3343
I3367
sS'0xYHrm3Eq2jt4Yc4wT4TsQ'
p3344
I3368
sS'kIUVD6fHUTj5Rz1Z7DZtJQ'
p3345
I3369
sS'NdHGV2JmZmhYG1tSCRwrBg'
p3346
I2723
sS'lEw2VL9JCDFk3R5NzahqnA'
p3347
I3019
sS'RjKOn93-7yX-I2l81DCbOw'
p3348
I3372
sS'-mbQJvCVcFC_o6-wgKUxSg'
p3349
I3455
sS'B_T4fv0GlGcZLDpchBX-0g'
p3350
I3373
sS'GLa-9-IU5EuLt5W8VWQDAQ'
p3351
I3374
sS'GERRIWMslcP4-O6mLErPSQ'
p3352
I3375
sS'YIMeEHUYm69m-Mqf-NjPHw'
p3353
I2699
sS'3o09Ya5VcRVMN3b2szZvkQ'
p3354
I338
sS's1DSkbdFEuO3ODbMWQqSvw'
p3355
I3378
sS'k1NEXdF1frI-Ojw5Wz03Vg'
p3356
I5135
sS'fbpjEkaALuGJo_dCYWPYRQ'
p3357
I4888
sS'dk5yqirSwDH7Cpp52NdhUA'
p3358
I3381
sS'aqXY7pN0nIHfyrusGA71pw'
p3359
I3382
sS'eA32f7Yx-iV86LGHjwPw-A'
p3360
I3383
sS'OmjMNG77obZOKQ59o-Tx4Q'
p3361
I1418
sS'I-FmdvI28N7OIIt4JZOgIg'
p3362
I3385
sS'm3FleKsUG-1UNqJsJZid9A'
p3363
I3386
sS'ot3m-jIwFMFFCMG1bkLZgQ'
p3364
I3387
sS'3ywXGq4PyUoR_XXDvK_RIA'
p3365
I4361
sS'ROK-C4ibaLa6N4ohD4LFfw'
p3366
I2345
sS'tXv2KmSr0x-SPky6eSHK-Q'
p3367
I3390
sS'5p7fIgmWgP6yWdqJbSrlig'
p3368
I463
sS'5VaOUbsODRiqG3pGjYSnHw'
p3369
I3392
sS'IVWyAFp-9xQ39Y3zO7nehg'
p3370
I3393
sS'-d4NT5rjIpZEz07f5rYtlg'
p3371
I3394
sS'KPV9GoVb6iN9ZcWBppFDig'
p3372
I3395
sS'GMeYzbl_kvY0dGZeA4Lfvw'
p3373
I3396
sS'ZqFItgRf8HQs7Qm46UegSg'
p3374
I3397
sS'TVN3qoXU0-sateboutdCZg'
p3375
I4410
sS'yVMvS4Q7JTxHALm8CTwSZQ'
p3376
I3398
sS'qI3uzegMdq3q3WxAajECGw'
p3377
I44
sS'9GCCoFw_UHiAHjZ4kygHgw'
p3378
I47
sS'Cs0z3IrpOGqRbDOp0Zo2bg'
p3379
I67
sS'0pb7fWD194iTqPMFAG5Oxg'
p3380
I3403
sS'VYXa-WYWq8FaIUk_z1yj4A'
p3381
I3404
sS'EJKh9ddLCqqdYSUJczphEw'
p3382
I3405
sS'2nE0zU6y_F7gkwHi3yL6cQ'
p3383
I82
sS'YttDgOC9AlM4HcAlDsbB2A'
p3384
I1858
sS'oZK2DjCiA-8Xq6utMi4AYA'
p3385
I3408
sS'OxEltbtY_LA2tPrGOTx5Kg'
p3386
I1637
sS'B4cJvWuf59j7XlTdexnVZw'
p3387
I3411
sS'63hpZgj7peTKizDs4zeKZA'
p3388
I3412
sS'qlJVwqTNPKDv91NOfi0k9A'
p3389
I2868
sS'otSHpPYQXHdU56giRmMBGQ'
p3390
I3414
sS'Wx7cbLDqYEL3_aVZwh82Ww'
p3391
I3415
sS'C0el0SuXLmzMzlPbUdSozg'
p3392
I3417
sS'36Vr9BASkR2v9NKNoZtiSA'
p3393
I156
sS'fVcdur3u2KqV0JcA3-Lo6Q'
p3394
I4671
sS'Qss-8g6xgZZmiXXxlfbLcQ'
p3395
I4153
sS'5PtkFEymTrtxdZ9Wys5s8g'
p3396
I3419
sS'8c3XuWaEQwzbV9AtiXB8mw'
p3397
I3103
sS'IlGYj_XAMG3v75rfmtBs_Q'
p3398
I3421
sS'GGSfLyM88SbFGhnm46ykXQ'
p3399
I3423
sS'tCv92Q-OP-q1MO7B_REk8A'
p3400
I3424
sS'lquc6IF6uGIeRomDLu9UnA'
p3401
I4394
sS'JoJY7SZNUUmTa5t-OG1pfA'
p3402
I3426
sS'MgAgvJwlt8ujtE4Pr0r9uQ'
p3403
I3427
sS'VMfN_dIZn08JFRdwp0H6xQ'
p3404
I3428
sS'UL-dYA-QhWeVMfz5NRf1Lg'
p3405
I3429
sS'1vB6Olfkba7Sb-Y6TfiB0Q'
p3406
I438
sS'25W8CVIdQDIkyPb8ISCGpQ'
p3407
I3370
sS'38zhUVIh6t_-mpcmbWYmiw'
p3408
I3432
sS'gXLTS8ftydM1Bsta7VPD-w'
p3409
I3433
sS'eR1CZx03llpP772vYfm0Rg'
p3410
I3434
sS'i-DWCn1Xk5-exHi0mBDO1g'
p3411
I3435
sS'e-jVwvMAiHTUYIRSmJKFAA'
p3412
I3436
sS'ggl6fl-PM5O1WrdReL0l4A'
p3413
I3437
sS'2e5V6M4GNufEnbGJpVdCjw'
p3414
I3438
sS'6NQbvQ78kkUPPlB5I_e60w'
p3415
I4974
sS'418F_vnEiJMlU-sKpGttHA'
p3416
I3439
sS'kk2oFTBSU9C2XshIVU7tXQ'
p3417
I592
sS'0so6layxcCRH2pv1OJUYJA'
p3418
I3441
sS'JI2HPIivGVUFVdTo3uXoYg'
p3419
I3442
sS'19LahklDf7ElBBliSHhkcg'
p3420
I344
sS'hgihRfRGt7JAmU7W34so7A'
p3421
I3444
sS'm5nb4WNYldQpWd3ZEr05BQ'
p3422
I3445
sS'9'
p3423
I3446
sS'6tDMGnbO4m8ENlUvG7r0eA'
p3424
I3447
sS'TJbKCPuS7PRUzJvg8h019Q'
p3425
I3448
sS'frthTngbBHgSdk4j85HmEQ'
p3426
I3449
sS'0CkUcQbO_NKWPU1WPZX4sQ'
p3427
I4751
sS'8-4W2kWgly4368CqomkfmA'
p3428
I3450
sS'UkAiuv_3y3ciM3V_BFlIZA'
p3429
I3451
sS'oknU9tuT6R16XlolOBnWHw'
p3430
I3452
sS'd_TBs6J3twMy9GChqUEXkg'
p3431
I421
sS'x3hyh8K4XIAyJ_K39fpOuw'
p3432
I796
sS'_NTm9Xv0gDfafBQxR3uUyQ'
p3433
I1300
sS'KkmADj2xPhJL6DbZRVQcLQ'
p3434
I443
sS'DihTsliUxbqpoA9W3uRDBA'
p3435
I3457
sS'6jz_Yr6_AP2WWLbj9gGDpA'
p3436
I3753
sS'l-tDF960t9BakjyH34XfTA'
p3437
I3458
sS'1ZhcB8kduDlsC3j70GYAOg'
p3438
I3459
sS'35mXkhi8kwCovEaPLpEwQQ'
p3439
I3460
sS'HKC-j6ShF_wUfB0q1BH5cw'
p3440
I3461
sS'CY0b8_ucmeSbdNSN0NkiiQ'
p3441
I3462
sS'9akppeqi5dnaIqPyJ75aCw'
p3442
I3463
sS'ipi0fKwDCxLtSYaI9xQNNw'
p3443
I3464
sS'fwd_rUQ9aFjlPw2RwcKCag'
p3444
I3465
sS'BQcITnzA0Vi8xktm2R7CyA'
p3445
I3466
sS'CHV3OXUzMbMDZ5A07UGO5A'
p3446
I3467
sS'xfivslcKdbemmzt1s0VX7w'
p3447
I2988
sS'iYzbRy7B_Ho3NX-1rXvRLQ'
p3448
I3469
sS'TmhFYYTHodJnrubq9IeFNA'
p3449
I4102
sS'Hnu5s_myOZZIS2eny7liVA'
p3450
I3114
sS'voCInOw9T3xt5rLqrAMnPA'
p3451
I3471
sS'Zn8tgekH0oCfyk4SUtygoA'
p3452
I3472
sS'aKN3Fq2uaRJTwZRPlI5GcQ'
p3453
I822
sS'yfy3v_n7BWiGs6pTf58i6A'
p3454
I3993
sS'BI4lPhrUpmEySIJUywjIjQ'
p3455
I555
sS'fHH6b6yDm1PSoC0G7VPRdA'
p3456
I3477
sS'owCe1K89i1seEMf5ynxtZA'
p3457
I3478
sS'ceC9qIoD6MDCmENjN11_mA'
p3458
I3479
sS'QKbq76KuUHLRZjWXDtbwWQ'
p3459
I3480
sS'0cyp4yH4XUkOKcQuP3_G7A'
p3460
I3481
sS'y'
p3461
I3482
sS'S5x3bBh7tXL70N2gLZn1ZQ'
p3462
I3484
sS'QwRpJ-gUdTJqq0I_ROVX9Q'
p3463
I3642
sS'6bfcLLL35DpsxAxxk5ZNAQ'
p3464
I3485
sS'2wzBYj-J0xQ2RWD46cDI5w'
p3465
I628
sS'Z6toIb5JpOF0ZACUe4R4Cw'
p3466
I633
sS'Itzy1C-zulmAH0lPKpmZzA'
p3467
I3488
sS'GRfwtMaNbGLictaiaQnFhg'
p3468
I3489
sS'PtDQ5aoaG9EmDKT3gvOxWw'
p3469
I3490
sS'wVv8-yw8wlzDyYJMDEXFVw'
p3470
I3491
sS'Qey5TBQmHeQ9dXsDgiNriQ'
p3471
I656
sS'FmLwFMr885MIFgcHk631Cg'
p3472
I4051
sS'RORrWniaUl8nseq47oLOyg'
p3473
I1348
sS'c8FOqDRhtL7q_YsQio6bog'
p3474
I3495
sS'c8YOUQ1Lz645fopLMNEAnw'
p3475
I3496
sS'bQCHF5rn5lMI9c5kEwCaNA'
p3476
I3497
sS'a5hyrWp6GuGteNxOW7yGsQ'
p3477
I3499
sS'0hMC8tPtc_K_ACAj7pss_Q'
p3478
I696
sS'xvPKsTGO5GljzRTGc9VC_g'
p3479
I1117
sS'KVN1eio-4QU3zlkPmZHRFQ'
p3480
I3502
sS'k_muz40jJaiY1PVga6NDXA'
p3481
I3503
sS'9EMgczqumS10LYSbsaiKdQ'
p3482
I712
sS'cBbVbcqUWrgYLP-06v0UXA'
p3483
I3505
sS'6iQF02aNgeOk8s8dougtKA'
p3484
I3506
sS'avUklb0ivSRLuCdplu80cA'
p3485
I5098
sS'cCwig3OI04K4HdOIXpnl_A'
p3486
I1035
sS'UGHhqtP6d1DG9KHJDOx72g'
p3487
I3508
sS'hcGgZ4PbKcM3K1clw7tEGA'
p3488
I3509
sS'NyYZUEQBYU7D2EA_F9bObw'
p3489
I3510
sS'DvcAC_nlKaTDsHcA8Slagw'
p3490
I3511
sS'nSXHEz55nM2oDI_j3X5k4g'
p3491
I3512
sS'Sd357RRT7uLQ3v52aQaLqw'
p3492
I3513
sS'G-uVT9JxNMbrPApvuVO6pg'
p3493
I3514
sS'URPjW8ckLuLDLR02uuLpTg'
p3494
I3515
sS'rLCbMQmIuWnlI-IhIj51kQ'
p3495
I3516
sS'JGHpOef9aP6rhgttrn9U9w'
p3496
I4629
sS'oZ4zwTAR2C9kGUL2aCGccQ'
p3497
I1431
sS'Y_iTTjKvV5hLy-880SZzlA'
p3498
I3519
sS'4CA-qAu_Pbyn84JcNZnN-g'
p3499
I3520
sS'r1AUyRmZhNUCd2qowbHXIA'
p3500
I1094
sS'JwDcN2VDn98_5gn3hMyTqw'
p3501
I4819
sS'hXSzBUjnORNXkaxwA1j-vg'
p3502
I3523
sS'rCWrxuRC8_pfagpchtHp6A'
p3503
I816
sS'61FNJUiDqXReViksOYiILQ'
p3504
I3525
sS'lMY8NBPyzlPbbu-KBYfD9A'
p3505
I3156
sS'owRJSf6XpxG0d9vBl04uAQ'
p3506
I3527
sS'Kbl3Pycg1SkH9pjch531UQ'
p3507
I3528
sS'RPrT8-YjQ14aRgJqZ8rHuA'
p3508
I3529
sS'zXQuFIgNgARtX6Nf5hIWIQ'
p3509
I3980
sS'DwaaafwryFbW7C4E1gU1AA'
p3510
I3531
sS'dB11NQfvGM-cv-05YV_SGQ'
p3511
I3771
sS'XQKDm_voMjyHHjfSQri_IA'
p3512
I3532
sS'bNbSy8RGHf8BE4P9K1_IHg'
p3513
I1127
sS'BTsyCC8AmftuDQCDTqBDAw'
p3514
I3535
sS'0dHBPR0U2pKU5r2DTCbPuQ'
p3515
I3536
sS'NnSczz_889Ejm3hXrquy-Q'
p3516
I3537
sS'sZ3mumX9WjJqp6qrjPPUBQ'
p3517
I3538
sS'Hxbl3k9_1vZkwe2v7SxvaQ'
p3518
I4906
sS'FFCBTsP3oL9c5YTOcJnXpA'
p3519
I1303
sS'lIMA29eEeNsYWF5VaflG_g'
p3520
I3541
sS'DKIz_c_cK1pMcxIuPIK3bg'
p3521
I3542
sS'XDnlriVXnZgFYXHqphBJ3g'
p3522
I4914
sS'ztAjPFZezR1Yd7syCQp60Q'
p3523
I3543
sS'jgfKeevQ95H6T8JGIaFCdA'
p3524
I3544
sS'fIfKT5J7OWnr_sNP7VKkAw'
p3525
I3545
sS'wo632pzj23-Di2RakSugjQ'
p3526
I3546
sS'eteU71BreWIONFxtIsCP9Q'
p3527
I3547
sS'zyLIp7DRFqeIE1Grrh3Zng'
p3528
I3548
sS'esh2zdQT5D0WWP8ttTqMUw'
p3529
I3549
sS'_uwuKDqYXnTM2qrpcs3P2w'
p3530
I3550
sS'cA64mID-MyZXgp0SiExD8w'
p3531
I3551
sS'wjQv92px4xHjbBoATkOTUw'
p3532
I3552
sS'1-2Oed3A3J2lzLnRp12FWw'
p3533
I3553
sS'UeZpPpsBLI0dort7UcwFVg'
p3534
I4535
sS'bGPaNsTLxN6n4kbQwCPkew'
p3535
I3554
sS'P0pFmBdgsP4_ceJuRaMbBA'
p3536
I587
sS'btgZWY-IciTg4q61saeJ9Q'
p3537
I2816
sS'5IX9FOesKrLRyz618xc6tw'
p3538
I3556
sS'Mlx7ZLwbhzjU7RmRVs4ngg'
p3539
I994
sS'WkBSBfRRloP6QFH7O8I5dg'
p3540
I1535
sS'hsu9lyXiAX5dQD4lLzYyyA'
p3541
I3560
sS'Ve0LUwcrzxL7w0RYgY4Aaw'
p3542
I3561
sS'rmrDS1VYA6hySyHtiyBKQQ'
p3543
I3562
sS'HUXgan4Zm5W_xyy27RiCEA'
p3544
I3563
sS'3zxy3LVBV3ttxoYbY4rQ8A'
p3545
I1016
sS'i8hfvfGkvfNK_oaaRzW8uQ'
p3546
I3641
sS'RsmzkgQ6S9ghtKb2DGX0Mw'
p3547
I3565
sS'zfD3xhVNkGJs-AOOSslqtQ'
p3548
I5177
sS'es15UP55rfli8OTgYr7cZA'
p3549
I3566
sS'a8vWyxKRNbQwOU7tC4EeGQ'
p3550
I1107
sS'MyW2jAJ_wyVsbqWLlCNIxA'
p3551
I3493
sS'3G9Jkn7hKc8fmbdK8_lC8g'
p3552
I3571
sS'PhTzCiYho9iO8tY49haBag'
p3553
I3572
sS'MurRkRS5aYaa1IfaRY20_Q'
p3554
I3573
sS'JwF4WNVp2mY_HMeroVUOEw'
p3555
I3574
sS'u4wMEPl-I1FHGHrKaK12yA'
p3556
I3575
sS'qipHmmkFoP6o1l4TwUViNA'
p3557
I3576
sS'b1TLsiRhQdfbbXahqFkVtg'
p3558
I3577
sS'3XzhO2aJdvVtYhKOCJsPrg'
p3559
I3578
sS'MRw1yT9BChejK1lSwVc43w'
p3560
I3579
sS'aTVOFTxVdfdIhdPxcEt1Vg'
p3561
I3580
sS'rqY0AQMUtoDQnfgxCNuKgw'
p3562
I3581
sS'KXSzTO-bi6_Fcysm0mEHpg'
p3563
I3582
sS'6Nk8WX1STMTEuKjmRlrh6A'
p3564
I3583
sS'85hUvyTE0UA7eDMI18OMOQ'
p3565
I4918
sS'zF10BKjK4Lz9U_8Yqw28ww'
p3566
I4640
sS'WcUgAsVEW-6Rlkikm-xIKA'
p3567
I5094
sS'zBi_JWB5uUdVuz3JLoAxGQ'
p3568
I3584
sS'Bezh6tDmCrL0-SnsV6CneA'
p3569
I3585
sS'cyuDrrG5eEK-TZI867MUPA'
p3570
I3586
sS'h_yDKWk3mMu4YtWxiLjGTQ'
p3571
I1130
sS'UG4EKu13JRwzRix6ESINdg'
p3572
I1134
sS'YHr-ijGyWQg3hsP-sEEl4A'
p3573
I976
sS'dIIKEfOgo0KqUfGQvGikPg'
p3574
I3590
sS'4ll-oTtXQ_ISmxqGYLvX8w'
p3575
I3518
sS'5elDILcQojTsX7GtU_N1Og'
p3576
I1158
sS'703E1kuAN7we3Eubx7BUEw'
p3577
I1162
sS'6cn1rYcmdHGncDQGUO_bYg'
p3578
I4699
sS'cQAZN2ZKyMI1GXGm36lDhg'
p3579
I3595
sS'0MeivhX0kZCfV3zMtHtk9Q'
p3580
I1184
sS'K97i0e7MaxYfvCCwPFMjuw'
p3581
I3597
sS'PnwOegp7RXfMeNAyO9fQhQ'
p3582
I3598
sS'bRzXn9p62VxUAMgU5dX8IQ'
p3583
I3599
sS'LVT0AbAlo-kF0uDKEOjxcQ'
p3584
I3133
sS'pxXt5tx3S7eZ-Cq1ymIF0g'
p3585
I3601
sS'hlezsROaT9N-Kx_SyqyrhA'
p3586
I3602
sS'0ql-awhVLO50urRBZH74og'
p3587
I3603
sS'HMUnp55Q8_vxIEPl1V0W_g'
p3588
I3604
sS'NoOaVw8YAe4SlgWGLWMY8Q'
p3589
I3605
sS'uEQ3nCdOBNOeJ0ow4Ds1vA'
p3590
I3606
sS'fSPvk0Z_9eWm2kkUvhDJeg'
p3591
I3607
sS'udUL1mm1ZWDCaLUlsJYlwQ'
p3592
I1261
sS'kc0dF9tfw9o_fwQ9dABltQ'
p3593
I5095
sS'AWCY8laHjH0-3HMT0LGpUA'
p3594
I3610
sS'mAqj8WY-uHncPpCn3ahCiA'
p3595
I3611
sS'Ppk0C_BkEq1g1xJvmlem1w'
p3596
I3612
sS'ynRkJSonX8Unc5-uk3cw1w'
p3597
I4995
sS'YAG90mceVFQLdvl4wndvQg'
p3598
I3613
sS'UTr4PU6YlsaywlAR1afdlg'
p3599
I3614
sS'xTGpw0x5EUj11YFhwr6m2A'
p3600
I851
sS'-fUARDNuXAfrOn4WLSZLgA'
p3601
I3616
sS'VFXKRVzEMbnsDcYFdwiiuA'
p3602
I4813
sS'Valva2MGzBW8ux3641YINA'
p3603
I2089
sS'7j06R8z6M8jTI8anwfjemA'
p3604
I3618
sS'NK-zIxHMuTnLRU0RhoZWqw'
p3605
I3619
sS'3uugj6C_tFdRa8SmVevJFA'
p3606
I3620
sS'oNeyHF8MKilKZOUENpTk3Q'
p3607
I3621
sS'REWjbYaUkmGw04lNZraeQA'
p3608
I3623
sS'-Tj4e-zW67MXj9Z7-Zkzpw'
p3609
I3624
sS'GGTF7hnQi6D5W77_qiKlqg'
p3610
I3626
sS'sVer7l3TKwICjZ6liQD53Q'
p3611
I3627
sS'N1ZCuhN0EFevaIfn6uRTNQ'
p3612
I3628
sS'uDCXh4P5c9vZcoUZU3jcLA'
p3613
I1163
sS'2ZiSwXWsyfhXlFb7x1sgJQ'
p3614
I3630
sS'3tCCjRLxIsQB7vdhzBCiXw'
p3615
I3631
sS'VnlUnPrfae-fbqDoXuvDbw'
p3616
I5069
sS'uZLORfX8rLDLrfOXN4vvFQ'
p3617
I1415
sS'Y9LH7kmYF9NyqYA3DadReA'
p3618
I2464
sS'vUbBLitXfn7aeaRCOoKjdg'
p3619
I3634
sS'FaPrtK-SB9sygQuxndPm3Q'
p3620
I5057
sS'yNLqc9lzNOxc5DBK9TK9Kw'
p3621
I3635
sS'k_VpB5MQhiGZg2EpUMMILA'
p3622
I1437
sS'24AzZDQKHySwMQR7VQVCAg'
p3623
I4829
sS'ZgAzKwganIXImRAMcvdK_A'
p3624
I3638
sS'h7p-GuaHFGsiKCF4g6Bjqg'
p3625
I3639
sS'O'
p3626
I3629
sS're3AdczLFP4D7xwI6DkBNA'
p3627
I358
sS'FSDj4JOrZxd5Z-ax15Klgg'
p3628
I185
sS'RaSq7WPbxH7Dm5yfVBAgYw'
p3629
I3643
sS'Rr64EomDocCXIzZOEO-TIg'
p3630
I3644
sS'kwLjniiYa1H57LwQX2TGIQ'
p3631
I4020
sS'hbjlUQaMJkQf-pj88__jvg'
p3632
I3646
sS'mpknILR3EaBrMC54VHzJwg'
p3633
I3647
sS'5aCEquYmXUIsWmpUp1gqxA'
p3634
I3648
sS'l-C8hPeB_X3Zf6pSFIReeQ'
p3635
I4932
sS'XbMMfaLlyvCfrVdgLMGcGg'
p3636
I3650
sS'KXmovFNsj5VS44h4RrLhBg'
p3637
I1519
sS'dSfbreMGKVI8QUL_pwjOfQ'
p3638
I3652
sS'VOYvD-kerR204k0WrR0J3A'
p3639
I3653
sS'xj4kmVaAsLVr5o_6WYj5LA'
p3640
I5127
sS'-IgKkE8JvYNWeGu8ze4P8Q'
p3641
I3654
sS'gfQqQYI5_hCAGEHlHXIz2Q'
p3642
I3655
sS'1kNsEAhGU8d8xugMuXJGFA'
p3643
I3656
sS'VdUjcjZeSF7sH8Z-OZfIag'
p3644
I3658
sS'AN9y_ctlxODtNOhwk2mx-Q'
p3645
I3659
sS'acoVn9Vbp0fnuc3n-1M2EA'
p3646
I3660
sS'R_g7nh8iT_qVUkjtb10gdA'
p3647
I3661
sS'GF-UBIwA0gEcUbAkve6s3A'
p3648
I3662
sS'woZhhAj9QrzMYBJ8M7uJFA'
p3649
I4478
sS'fH06UsgS5C3qI9NqSclweg'
p3650
I3663
sS'jAiGoRmj3eAkeH_3KfudXg'
p3651
I3664
sS'3roJp-RoqKVoMgdtuJFM9Q'
p3652
I3665
sS'HFCRM3EKyplFO5MbFk7rng'
p3653
I3666
sS'sVy5pmUN2J0sE2AzmgoBvw'
p3654
I1612
sS'y3IH1jtMxGkSvZYnCnh5Yg'
p3655
I3668
sS'lmL1P6wJi0Z8Jg8DTPqawQ'
p3656
I3669
sS'KQ9TbTOBwC5PTX0HXq1Tng'
p3657
I3670
sS'Np2q37v8xL_r01XJRPfvnA'
p3658
I379
sS'XVCbtVh-RdW457YJusytgg'
p3659
I158
sS'xzuDtdGDHHBNbdgWAGkCgA'
p3660
I3674
sS'oEvsA_IvL0yRyI7d4lT-IA'
p3661
I4937
sS'QB8c9Hyt6lL7ncIxzQ-CYA'
p3662
I3430
sS'CYs8MNCKgX58xBUm2aAX9Q'
p3663
I3700
sS'EwXTFlhKft8XR7rvLeLoYg'
p3664
I3675
sS'uU7GIgzs4-5Dtp9Vuymb3A'
p3665
I1679
sS'E4SfIfuU0H3RtDKwDvc_Uw'
p3666
I3677
sS'ubF5zarbyXJVMTOZrSUFyQ'
p3667
I1695
sS'dR_rEskmBSyY3AuI-84dUQ'
p3668
I3679
sS'6rb0JzTRvGMUFi3-v0c6Hw'
p3669
I3680
sS'LwSU7fthwBZKI9o4vS0dAg'
p3670
I3145
sS'm-BZLIIh5PCAKnzH0qj_0Q'
p3671
I3708
sS'LYXc1p5VH4ny-KO2-W1_eQ'
p3672
I2427
sS'p9OUxMKlyRkOueYAeHuXig'
p3673
I4028
sS'CjvFxl6_7AK3lw5O49MN8g'
p3674
I1722
sS'd1sLYlfSzHo6WCpfe-j7zg'
p3675
I925
sS'DqvPZh-crUdz4vN4tuVw-Q'
p3676
I1729
sS'UY-PIbm4jcnCHcFhjpaqTQ'
p3677
I3688
sS'IfHo9BPvVpeuzY8lnJjN-A'
p3678
I3689
sS'cctZ5e0OLd1g0jNdRk5Buw'
p3679
I1477
sS'tn6qogrDbb9hEKfRBGUUpw'
p3680
I3691
sS'gtrH6fcBo2ZeEYz2FbqTjA'
p3681
I3683
sS'-H6cTbVxeIRYR-atxdielQ'
p3682
I3692
sS'WGB8L2QmdknCKObzzf77CA'
p3683
I3694
sS'IucvvxdQXXhjQ4z6Or6Nrw'
p3684
I1630
sS'3BHeHTGNZcaEi8woqGy2kA'
p3685
I4210
sS'1Bx7Pg9t89DinwsGwSDB-Q'
p3686
I4390
sS'U4INQZOPSUaj8hMjLlZ3KA'
p3687
I3697
sS'8lH88XdzbQKTFg9WQZeuCw'
p3688
I3698
sS'7J6sOvhSksLtzO9hFPEnGQ'
p3689
I3699
sS'5wVMvCjRp2lVHvAsi15hAQ'
p3690
I1824
sS'GGjzQnNZb4IDGfzACvNquQ'
p3691
I3701
sS'f8W2Qv9QosVaP-dRQwLEyw'
p3692
I3702
sS'q6xgj7izoqXoTOWE2QyS1w'
p3693
I2962
sS'X_DkwPTzdO_VWzUcbUXREg'
p3694
I2875
sS'mAhty2OHDTtLm00quB5Xjw'
p3695
I3591
sS'_f9NyNygDasxm4x_8K0FMg'
p3696
I3148
sS'SF7ww59KWLXe0S9bD-vWPg'
p3697
I3706
sS'45PdJ5LYQIL8_qf4UdbpPw'
p3698
I3707
sS'9pBP0RUGWPOpXbYv5HuFGw'
p3699
I3709
sS'fTWtXca0hmdjLQFvkrNDPw'
p3700
I3710
sS'fT-D4Ayjv-aAyLQC8ErvYQ'
p3701
I3711
sS'4wp4XI9AxKNqJima-xahlg'
p3702
I3712
sS'06xIElWq6CAvmtk1xHJWNA'
p3703
I3713
sS'wSByVbwME4MzgkJaFyfvNg'
p3704
I613
sS'UlWDGR0QrBbdFsVY6ugocw'
p3705
I2327
sS'5Ly8jYv1z9rJXPgYMalWGA'
p3706
I3716
sS'C2C0GPKvzWWnP57Os9eQ0w'
p3707
I4945
sS'6ce1NSAUt1Kr7efrLI8XQA'
p3708
I3717
sS'3MMTwPtpiMlBDe-p07XK9A'
p3709
I3718
sS'KKlGiwN0g8p89eQkMyhvKg'
p3710
I3151
sS'iP9NCp6If6YnlOc2QeDqeQ'
p3711
I3720
sS'sCxXYROTaP3NnCcxiD-rnw'
p3712
I2329
sS'8XlZ4F-ZhtAa_YHbhBPibg'
p3713
I3722
sS'oIxsWOWytMmV4bf_ffo01w'
p3714
I3723
sS'DoRCeCcJbrsM2BiAKj3trA'
p3715
I3011
sS'WecuAsHBDZGj7Z6_sJcQAw'
p3716
I4947
sS'p05BaSFza5U8MRUXAciB2Q'
p3717
I3726
sS'fQSH9H4-tdUBkg1vVaUc3A'
p3718
I3727
sS'Xj4NPAq2efs4mzS4kFHGyQ'
p3719
I3728
sS'fJ0LLhAZo9wnWRKa0cENZQ'
p3720
I808
sS'GwmOgwMTlOHV1GiqiPZ8Cw'
p3721
I3615
sS'LfKyD_XaTnfKoKujRZ1Wug'
p3722
I3730
sS'mqf7xO1AeQxkAOhWJz5Mlg'
p3723
I3731
sS'oWd7wL340Z9JiGf5Wu_bSQ'
p3724
I3732
sS's6CB8sohXlCL6XZDgAy3SA'
p3725
I3733
sS'TylOr9YYTV3znqIvH7kdmQ'
p3726
I1700
sS'JwQ8oI5iXKaqfBgZSpm19Q'
p3727
I4037
sS'j5ezF5mEGpnDwdTmAHci7Q'
p3728
I3736
sS'ZI0grFN6uDCjnOspzBVtcA'
p3729
I3737
sS'R1FVpAyl_BtxHBWdau2VLg'
p3730
I1466
sS'6VytXlGLnQnXXCrhvT0AJw'
p3731
I3739
sS'MoCD_-Eh_j6-dI0V57hG9g'
p3732
I3740
sS'cEj_Vm8n7O4YnUzo6zaNzA'
p3733
I3741
sS'ef5CX_TZGvX_AXMtSWF2qQ'
p3734
I3742
sS'z'
p3735
I3743
sS'OFi92Xc2QyIr787GNKtgZA'
p3736
I3487
sS'u-rO_1IR1d4xibcYHA4zTg'
p3737
I3154
sS'XeTkyI0P1qv_mOe2RKWu8A'
p3738
I3747
sS'hwAMnxtNgN8kGNjjS4oczg'
p3739
I4548
sS'v'
p3740
I2766
sS'rIdAaqGRJ_rY5CbD6qnjiA'
p3741
I3750
sS'OkmGRcjHEfUHh0Oy0IOalA'
p3742
I3751
sS'VZUHcHoSYtn8mKq31hAM-g'
p3743
I733
sS'GqHrL09yyKXq1OHa8DhDPQ'
p3744
I5116
sS'4fBtk9ff4P-gdWBiS0r6MA'
p3745
I2671
sS'AVMGbV6GR7W4Hxt52R3-tQ'
p3746
I3754
sS'WDsr8RnPqbceR3s2yZYr3Q'
p3747
I2497
sS'NsKJ7A1hSZ1XUdHui6bDSg'
p3748
I2121
sS'62GNFh5FySkA3MbrQmnqvg'
p3749
I1469
sS'P5pau3q9JLXmWbzlUad0zQ'
p3750
I3758
sS'4PIcs3X-Ro_KoczDJ3y4ZQ'
p3751
I3759
sS'9HGR8sU_zm15sI109H-SGQ'
p3752
I2643
sS'Kj9cFO70zZOQorN0mgeLWA'
p3753
I3762
sS'lBIfa3INjAj_z2_amlnq3w'
p3754
I2150
sS'q4-Nvtr-FlHxAZu66vm-ig'
p3755
I2171
sS'uwt8VZMQX_rHqCLfPdrQXA'
p3756
I3014
sS'hE22l_i6GHr2AqSeqH0fyA'
p3757
I3767
sS'Tzdu8NMT7Sv87HLkpHl1LA'
p3758
I2190
sS'7mkDRcrsS4dCeRwIaLQ1QQ'
p3759
I3769
sS'2HchhLgGj16aITZGVy0hqA'
p3760
I3770
sS'gBqe6afNTVLrVs-g4BsHPw'
p3761
I5009
sS'wlWNPP84F70It_l6OP2_mA'
p3762
I2208
sS'3CwMwbY9UgP-qvTDxNs_0g'
p3763
I4854
sS'sU50ZBMe4_s64QqoIHlhaw'
p3764
I2088
sS'CQUDh80m48xnzUkx-X5NAw'
p3765
I784
sS'135DbbQnr3BEkQbBzZ9T1A'
p3766
I3774
sS'dHLL7SVGJw5uM6IEp_wb4Q'
p3767
I4955
sS'pxFrX7iCYn8rLVfxVg9PQQ'
p3768
I880
sS'5lXLfyND3naSNHEuiHsjmw'
p3769
I3777
sS'YE54kKTuqJJPNYWIKIpOEQ'
p3770
I3778
sS'dP2vQRFB0xK5bD-aCGZM1w'
p3771
I3779
sS'renx4bbdhSQUABq5Nt296g'
p3772
I3780
sS'Q-rcjUuCurPsFxe5OcHVmw'
p3773
I4044
sS'knUP9XZ1hD1CF7o7J-AAoQ'
p3774
I3500
sS'F_NG8ZaNVriV_hujoOejIA'
p3775
I1572
sS'DOj9NanlJP3xntULCy5Uow'
p3776
I3785
sS'dt9IHwfuZs9D9LOH7gjNew'
p3777
I2298
sS'9KPEd4l0S-dlWiXWtthtrA'
p3778
I3787
sS'LFzCNWu8tIxGNPk358QVJg'
p3779
I5076
sS'lUAEesLvvNUAYqqkxLFpgQ'
p3780
I3788
sS'BVKJF0OYYy9uqOEmEL37bw'
p3781
I624
sS'qolJVR7HE5vbvzQppINCCQ'
p3782
I2318
sS'Ryxj0u0AW3mRsRypdYli2A'
p3783
I735
sS'OnagJ2dnPjfRRT4a_CgKCw'
p3784
I3792
sS'2hMNc8G87MGYw4PomxT8AQ'
p3785
I2344
sS'AE8nHSRPFlB4nh7CP8PlGQ'
p3786
I3795
sS'58AH_EMcw8QS-UD12JyMmg'
p3787
I3797
sS'vLxpEHKZFzv8LYY5eeGjTg'
p3788
I2165
sS'm7mQf4FbNRZ6u1wrHEmonQ'
p3789
I3799
sS'OMoBzr4FhDkk7yV8zYtmiw'
p3790
I3800
sS'37cpUoM8hlkSQfReIEBd-Q'
p3791
I3801
sS'GiPvassloy1k7MWW7T3wGQ'
p3792
I2391
sS'_-oTR-yaPtsgm5OGFFzr_g'
p3793
I2196
sS'23wQqI-DYwKkIp1av55A1Q'
p3794
I3310
sS'C0tn9ThfsBsWZ44N6dCTXQ'
p3795
I1585
sS'7SmEWHH-f7tYmRAwEBSceA'
p3796
I3807
sS'ms7gg62p6gEfc6-YHNaebQ'
p3797
I3808
sS'xzFwCeHtPczly7G8BRx9Qg'
p3798
I3207
sS'Ta3V5b98z48RaV3fmmlqrQ'
p3799
I4602
sS'SfY0jEFqBkrqq9bVi6P31Q'
p3800
I3814
sS'xsMd6OnEJ6_Np6Es0uxOIg'
p3801
I3815
sS'Vd5ZQKvhdXS3WgECV78_hQ'
p3802
I3816
sS'xP9-tpvS1wPNJ23cIZGmdw'
p3803
I3818
sS'NE6fB3SXIo0qFpQESfqlGw'
p3804
I4053
sS'MiivCWuxD5gm29HAjYVciQ'
p3805
I3820
sS'SXeMGP5lNgc03z7cl9Xihg'
p3806
I3821
sS'-pzlhxN6-DtuvpX4blnTxw'
p3807
I3822
sS'VdqnSamkJRcRNKexva64CQ'
p3808
I3823
sS'T4cflb-H2M5W8_hw1OqAUA'
p3809
I3825
sS'X-8WUdJ1hYidYXQygzTEBw'
p3810
I3826
sS'Tqm7Wu7IBJ1td3Ab5ZpUhw'
p3811
I2509
sS'soFo2vPCPZey3F6XP4WATA'
p3812
I2513
sS'wY-zDQAk449VKfXia27L1Q'
p3813
I3829
sS'Djk49JjpKl9HQNpmiX669Q'
p3814
I3830
sS'2bHSZhM0huV8LRh3YHaOSQ'
p3815
I2534
sS'qmXKvtJe83rMLXsvkRMlBQ'
p3816
I2537
sS'2qqUJSBq8TSMPgSIBOt1FA'
p3817
I3715
sS'zh7sSdnM3CefK8RBRWahZQ'
p3818
I4659
sS'3-t_uaPKVQQmOUAIu7C-PA'
p3819
I3834
sS'fQcfRZkcOO-MXFYD5umf2w'
p3820
I3835
sS'1HM81n6n4iPIFU5d2Lokhw'
p3821
I3836
sS'5Z-3tcM07Pyc4mOF2Rjt6Q'
p3822
I3837
sS'4q1GOTm23q-qG3o5Kpz81Q'
p3823
I3838
sS'TLpnu9BZNLTuB1ngxjnIpA'
p3824
I5182
sS'hLNg56VSRmnMj3s8pgMh_A'
p3825
I4983
sS'jrMxBHW3SlUGVGYWvPsHWA'
p3826
I4304
sS'C3Hpsx_eDfeSmxEc1HBzpA'
p3827
I3839
sS'xipyrIBO-r1j6PLJ7sIduA'
p3828
I3840
sS'ic-tyi1jElL_umxZVh8KNA'
p3829
I3841
sS'1TFraFC6i-tDhXQ3del0-g'
p3830
I3843
sS'YOw1yg8THktCCioY2q55_A'
p3831
I3844
sS'CtgTtg3JXpkma0XP6xqkvg'
p3832
I101
sS'bpgbVPJcG-wQ4cNBcPPIxw'
p3833
I3847
sS'tx7RTGrlLKBG9c93lnio5Q'
p3834
I3848
sS'dMvs7AzNmnXweaZ6SJlNrw'
p3835
I3849
sS'-HXpF9E-YwE0g-mInWSRuA'
p3836
I4059
sS'hXzHaGve9mRcPP30k8iL8g'
p3837
I3851
sS'HzoQKKHDq9BI37dyJAAtGA'
p3838
I3852
sS'W7ze3kEq4Br2JIOPP8okNA'
p3839
I3853
sS'VHjR5F6mdnLrQcCb0nqCYg'
p3840
I4771
sS's3kRi7b8t2sdtYcsMbqlJA'
p3841
I3854
sS'8hvXl0oJmU61l17LG9aDag'
p3842
I3856
sS'QJW33YrUGp-wVMI8M5mObg'
p3843
I3857
sS'SxY4qXVBMgaTQwEUzkSdFQ'
p3844
I3858
sS'NpU44ANnUUNQWY4U0eUGvA'
p3845
I3860
sS'USdWbCN1iovQFy1AQp2TRw'
p3846
I3861
sS'UQa9RqoJZWAawzqN-2pT2Q'
p3847
I2979
sS'2OjNNLpCCGrtfQtpcbhlkg'
p3848
I3863
sS'l-B4axUNxQ9FVVxeQm8t2A'
p3849
I3864
sS'qAuZ9Qi7iSqukH40iQdWXg'
p3850
I1394
sS'Vj6_rA8GjZDy7AnMgeRPuw'
p3851
I2730
sS'Z9rSlTj3pJr2eI7eqWIlZQ'
p3852
I3867
sS'fkawweeCwxO7cWq8EgEkFw'
p3853
I3755
sS'80mCsSAZPUwKmPRWvx8rzg'
p3854
I3869
sS'a4r7b9qJI_1HwfVul-ns5A'
p3855
I3870
sS'63SQPROZ48xwGUb2LloFQA'
p3856
I3871
sS'Kj-u8Yq1d3mLKitWsDAxpg'
p3857
I3177
sS'PhmMWBBQda24K9z6b9R-sA'
p3858
I3873
sS'ZH6xJx_axR-61SHM-CeRpg'
p3859
I3875
sS'8iItb1oQeOeVkpJIa1oI0w'
p3860
I3876
sS'DgrIg1OR7arL8tVRiZ-psA'
p3861
I4634
sS'w-hrD3-YJXbDUlvBwrpWtA'
p3862
I3877
sS'8x21PdPqqMuPhNsb_odrxA'
p3863
I4006
sS'DICLJDdq0HpvOVYR5mB4gA'
p3864
I2215
sS'nl8gWLDo6U6MjqzbBmE_9A'
p3865
I3879
sS'6XCZoufB_S-sY6vsxMGd8Q'
p3866
I3880
sS'BmxqEeNmHW2b2nju1vMhmQ'
p3867
I3881
sS'LEGudhGQU2sBvpyltEov1g'
p3868
I3882
sS'ZlzS3eyFdl5JaSK0JGbSdw'
p3869
I3883
sS'hrWnftKtSg5kOlMkMUW0cQ'
p3870
I3884
sS'j4BMT5Oyrt15-pwK3cRSZw'
p3871
I3874
sS'EQpFHqGT9Tk6YSwORTtwpg'
p3872
I3886
sS'Lr-B-r-KF80yFy-2u336bw'
p3873
I3887
sS'Nci8Nx0_9G0MSLYvQifacQ'
p3874
I2832
sS'oTae-gLGMpNNFxcBn2D77A'
p3875
I3889
sS'PcPminF0bIUsKjUh9e4DMQ'
p3876
I3890
sS'uJdghQ7f8snapKrYxfZidQ'
p3877
I3891
sS'5SDwdNaU0c3cf-Oum-J3Xw'
p3878
I790
sS'8eQ7LmOK6KeSRXq_o8KaAw'
p3879
I3893
sS'HhwPTD8_6QmRbRfWvImwuQ'
p3880
I3894
sS'zFo--zdHXg6KJ1RYd8r1BA'
p3881
I3895
sS'dAFchO8ZQvgeAV3ryYNtKA'
p3882
I3896
sS'yX6miszwwodkYGLBg7UEmQ'
p3883
I3897
sS'DC1hfeeSaYr2E1xwiEL81A'
p3884
I3898
sS'Eus5ji048KwmXXDSKKmxKg'
p3885
I3899
sS'LyrAjv8V6HWkceuTB4Xtkw'
p3886
I3900
sS'N8j2-22fGnRFDXGo16pNwQ'
p3887
I3901
sS'rC2PCfLaztmkZSx_VeVkxQ'
p3888
I2924
sS'4IFV7-ijckMWktp3jGVFyA'
p3889
I3903
sS'XkLK2iBsgqF6mWwDfRgqqQ'
p3890
I1654
sS'NEIYKki2XKFjLan4ba77rw'
p3891
I3905
sS'd89lRBtRUBqJSCttUXvQTg'
p3892
I3906
sS'CSsZKyjgef2GS20JtP4W2w'
p3893
I2358
sS'IKbjLnfBQtEyVzEu8CuOLg'
p3894
I3908
sS'Y5oH9VlzH0IfhCQ3SSESoQ'
p3895
I3909
sS'JAFgOs6sMkZEE_nmwHXejw'
p3896
I3910
sS'tXhscxwFTd-ayLTdPx_2yA'
p3897
I3911
sS'fccMIyBd6ZhFUVAhvSqsrw'
p3898
I4759
sS'gZKrQxAG2cpsXpwOMLvcow'
p3899
I3912
sS'RlXfOTtpgTfcisRmukrGbw'
p3900
I3401
sS'i6pCe_ObrsIniB8n1Dp9pA'
p3901
I3914
sS'RolhSrjDvNakZ-Uary6HCg'
p3902
I2997
sS'_iQ-APamoahuBv8qG-rxYQ'
p3903
I3916
sS'JqKT4a7h3HFwhIc9lyg1Ow'
p3904
I2001
sS'gzE5dfmxNYj5y0fIJBVblQ'
p3905
I3918
sS'lpKxWDfrMXXhoZANpwPYaw'
p3906
I3919
sS'JD7L3z31GmOuVsRRPyqdFQ'
p3907
I3920
sS'KtERwGUIK2urGM1mejPYiA'
p3908
I3921
sS'VRvD7-JHdWdTQnh1lRCw_A'
p3909
I3922
sS'q6qK_AWI92TobQPyO2kVXQ'
p3910
I3923
sS'XEHZoTDWjw3w-gcQyYIe4g'
p3911
I3924
sS'bWIkBIaBLTG4fwcXGOnS0w'
p3912
I3925
sS'vDzJZHf1uF63LoG0DFZn2w'
p3913
I3054
sS'xRbBt5MVKZ5-_8HhhfI26g'
p3914
I1339
sS'Wjt4UlpEa3_e9dYTdMsdmA'
p3915
I4074
sS'ACwBMSJzgW6vOvV7vOrk8Q'
p3916
I3930
sS'w2d_Ea6P8_nNMWT4-yuf-g'
p3917
I3931
sS'mBBGHMLDDmtptNIu039RwA'
p3918
I3932
sS'Xq-0cU_ipugXOubJ0ITkmg'
p3919
I3070
sS'1yXVKvK7uYjAZnonIl3jNg'
p3920
I3934
sS'Hhc5iKV5CDoFLruTunY7YA'
p3921
I3935
sS'SAfNyiLVgPZzp_aGpXnfwg'
p3922
I3936
sS'd1NWwQnhfRrFZQu-8_XD_g'
p3923
I3937
sS'3S53VaMDPy8Lywk2TuPb4A'
p3924
I3938
sS'MIKByQgLWgXNU_26CX1Acw'
p3925
I3939
sS'6neXMCt9GMr0-FAWxfltzQ'
p3926
I3940
sS'mDBAmEsyxuVTTT70dK-dqA'
p3927
I3941
sS'5RHa6ARjqHnjkk2puc5y_w'
p3928
I3942
sS'2qKOL7C7WbG_M3EOWvTFxA'
p3929
I3766
sS'qZ3sJPn5NqSVFMLYGAJH_A'
p3930
I3944
sS'Dq_Jkpx4xpbh4iofayOr6g'
p3931
I3945
sS'R_xjmz2nZgyOkqFKPmkjnA'
p3932
I3946
sS'AIBCHP4azbrP_ASpcIjSXA'
p3933
I3172
sS'y-XxUFQR_0WfAHaWdPDt2w'
p3934
I3003
sS'KjhdcYvq72vD59K8thXmrw'
p3935
I4857
sS'lXKWgXClOGr1PjRnNXwljQ'
p3936
I3950
sS'ZRnsUs9q6DbeJbOLjCY4ZA'
p3937
I63
sS'5ITdf0mnklCpIUenv-5LWw'
p3938
I3952
sS'1O638BDK_fWuxgTVJwff-A'
p3939
I3204
sS'gHMn_3MEgg1rTqtJ17NUTA'
p3940
I3954
sS'lp6-HtvKkTVEJNTDD2lTdA'
p3941
I3955
sS'aGUZKSRPA-MHHj6b8GhOww'
p3942
I3956
sS'UocP__dr62XQbZpprPIFvg'
p3943
I5080
sS'SssXdhbeYJOCF6sfSFwC-Q'
p3944
I3957
sS'thi-jmMx-himXfCw_EuDSw'
p3945
I3703
sS'7aAv1krH7Zq5Ggfh1CIjVQ'
p3946
I3958
sS'3G2T5eUTD5ieCfmCWVMKZA'
p3947
I3959
sS'PmTAFPoq3bufn9FVxCWRvA'
p3948
I3960
sS'KfyKFYNL3QpVKC2G7EeoRQ'
p3949
I3961
sS'TOj5yZZEwS3J3fLgo3V3yQ'
p3950
I3963
sS'Ry2eEdDFbB3jCd-puLq0bg'
p3951
I3964
sS'eIQn7RWhvYRji-XNxRbBug'
p3952
I3308
sS'KFZISl5mOUJ6bu3qCUrO-g'
p3953
I2041
sS'nGqmdnQb_xUHNcPheQbwtg'
p3954
I3969
sS'OnhM-m4MHhgWGiBWd9apYg'
p3955
I3322
sS'0KgqplyXwCzjeStc1BYK-Q'
p3956
I4924
sS'DOKrvb9i0A3a-CpOxLqo4g'
p3957
I3972
sS'HW-QgyCq4DzUQCFRaYn6Fg'
p3958
I3342
sS'NOs3g2KLfNvuc9dDWy3syg'
p3959
I3974
sS'S90cznhfdL29yMSEZ_EnJQ'
p3960
I3975
sS'2Z0I9POv2N5p1_vOnCN9lw'
p3961
I3976
sS'9fe41Vmw245Eho1PghHHKw'
p3962
I3977
sS'6a-782Y5FXqJ7KGmQtJsSQ'
p3963
I3978
sS'2Kt8yYHWBqxE9hy_JOZlvA'
p3964
I3979
sS'eZZyuJDouIg4p-GYB3PV_A'
p3965
I3530
sS'S9Jw00eZHVj5_0sOM_C5Rg'
p3966
I3704
sS'gfyW0vuJls8ARoHmogfcmw'
p3967
I3981
sS'ETpvceVRtVLjhDEgugFieg'
p3968
I3982
sS'ZdkzBEMzY1DL4-snIRZThQ'
p3969
I3983
sS'a5QS6g30nM4q2XFGP6Po9g'
p3970
I3984
sS'5MCBLBxr10NLUKZ4AboAMg'
p3971
I3985
sS'zMEdR4h7FHNExwQLKvPP8g'
p3972
I3986
sS'uZbIzVlYLu8Etg8wUXyRlQ'
p3973
I4766
sS'c3_AdjAlMy4EJYQhuXADgA'
p3974
I3987
sS'RR-hNSxTUs4CSkGQZLEWyw'
p3975
I3783
sS'9XkpizE6dAqTmnyQ_eKLfA'
p3976
I3989
sS'zU9_B8fdyFIRJvXfoFaUgw'
p3977
I3990
sS'qNgmvqt7zuLt1g9o-TFSdg'
p3978
I3991
sS'j0eBR4rcbtpylG6b47TD7Q'
p3979
I3992
sS'GhnqHTT1vKkLc0Z1rGsQ1A'
p3980
I3474
sS'RkfQX8dSJNzkAAItX326Og'
p3981
I1780
sS'fwLnI26REioxcT6E8QJ2wA'
p3982
I3995
sS'QnKyFnXSM5rjbuDdkiD1sw'
p3983
I3996
sS'tjTrsF-CpDnTcclX-3sCTw'
p3984
I3997
sS'WSvMUpT3z8iy49FfMv80tA'
p3985
I4986
sS'F262q88zc7zsdEeNCzcA0A'
p3986
I3999
sS'5tXRxr4T24Awl7vjyCvIcQ'
p3987
I1697
sS'kd-t09g47HTd3fQtceZvfg'
p3988
I4001
sS'swocJWD8R1iH20-lveXh0Q'
p3989
I4002
sS'hYhd961l4OCNnRz-odr7GA'
p3990
I4003
sS'UOM1TCOUqT2UD19p-yxWLA'
p3991
I4004
sS'Za8VyFxoPAnfYoMCjNrTxA'
p3992
I4622
sS'YVaONBBT9lSJQwBPWCB0qQ'
p3993
I4005
sS'T0HWgeviH7722ZJpWFrB4Q'
p3994
I4864
sS'3YK7REruC4FwDTOj8zUYcQ'
p3995
I2622
sS'SCo1UBoeN3bhRMkSYuiX1A'
p3996
I4007
sS'4R2q6IxcBxsZsL4YMk3WPA'
p3997
I2597
sS'pEb2Gx5IMdDfZXHe-coXMQ'
p3998
I4009
sS'I2F4VyZGB0FW2JzzlKz37g'
p3999
I3625
sS'IDGjnWQAiycFc3XJRGCZAg'
p4000
I4011
sS'T6zcfyO8eR2Py9V_bK_K4w'
p4001
I4012
sS'9rgiTp7kcoJ0cOY6uQDn4g'
p4002
I4013
sS'oSN3M4_WKdlTsnpgqPDiBg'
p4003
I4014
sS's2o_JsABvrZVm_T03qrBUw'
p4004
I4015
sS'riWDgbauId8TK7YFVgMNJw'
p4005
I4016
sS'lRHUkES8HnFAqdoi4hwNkg'
p4006
I4017
sS'RyPeT_ICAtX8ah9dhDpEFw'
p4007
I3637
sS'8Z9ugoA4MGwiJVh-CB8bhQ'
p4008
I4019
sS'xp9UEkFyz7h7Ii1XVzU4tA'
p4009
I3645
sS'Bkv9SeDIAJ_X5-NeZCdF3A'
p4010
I4021
sS'hyL8xZ-94jXcaqQt5hS14Q'
p4011
I4022
sS'rGeb9gC4FDtUqFt5PfKbeg'
p4012
I4023
sS'XVP0dQV-BsXKzp2KN214dg'
p4013
I4018
sS'QdhsBITt2VqQzwNxRu4QjQ'
p4014
I4025
sS'Qk3jMHizziXjj7jfwVO1Sw'
p4015
I4026
sS'53bZ_EsXH71L7iFs5MP9_w'
p4016
I3833
sS'L0hIDvoJUMNHSK_vEWGiFA'
p4017
I3684
sS'oEqB6qGiV2K3q8g2A8rfYA'
p4018
I2755
sS'bC3aSG_blKqi7Ge7-vtULw'
p4019
I4030
sS'P_Jv8vuqPL4iACf_Evy7TQ'
p4020
I4031
sS'wCtf5_zG8EpWiBp_Oi7P0g'
p4021
I4094
sS'hGeXKYWkqJgFC1u_Sh6kCg'
p4022
I4033
sS'k0m5nvgAIIA24t_iPZOAsw'
p4023
I4034
sS'3uhU_DdYjI0tmB9iOfXPrQ'
p4024
I4035
sS'E'
p4025
I4036
sS'AY57V_l0QCQ5gir-N4ubwg'
p4026
I3735
sS'Wd4FRRD30avk-Mj6C_O2ow'
p4027
I4039
sS'GvYyEkCdovKI54TCwtqnww'
p4028
I4040
sS'0-n89YwF9LExnPIwgIVhoA'
p4029
I4041
sS'l3S1srqK1CvjB_S4r-ZBeg'
p4030
I4042
sS'U39tz4YSeYNOJ_CMxVWZtQ'
p4031
I4043
sS'58VeQ6Lfyl7MEQTYE8CkkQ'
p4032
I3781
sS'lCmvpQfFpdxhbWVM59eUCg'
p4033
I209
sS'F6MPrQ5oxQL2Wq1v5ENDzA'
p4034
I4046
sS'YJmXfJ0sI0QSDAe-Ea8FEg'
p4035
I4047
sS'3KK7L2Q6NMfJA1Ky4Ntmdg'
p4036
I4048
sS'drrUNO_oPVFTCl0Piew-0Q'
p4037
I4049
sS'ekaQsTZ_PlxR88xtHgZtcA'
p4038
I4050
sS'D_-NWbXPWQDN7kE1jkFQZQ'
p4039
I3810
sS'FupbUDKwsiLnJ2epwYs9pw'
p4040
I4052
sS'DeP-XBTwL8pRYjfr83RWCA'
p4041
I3819
sS'56vERWd2VPTfjytCQlSc6g'
p4042
I4054
sS'Gd0WmyJ2_HnwBVpiLsmmUA'
p4043
I4055
sS'10Xfhcdi9PZiYUoNbHn3jg'
p4044
I4098
sS'LOLGcB8sZy0nQ91Q9ESe_w'
p4045
I4057
sS'KMNrOXkfx7CLAaxA6y0dWw'
p4046
I4058
sS'Bbar1EB4JEviStEAqUEFOg'
p4047
I3850
sS'92UwOx9E1mIjaT_9pq4_sQ'
p4048
I2734
sS'Syt_iQqW_c9T2_lrvsddqQ'
p4049
I4061
sS'Sv3Q-VQ4jBi1KPpdnKztAg'
p4050
I4063
sS'52YAyBT7zJN6EmEfHdrHfA'
p4051
I3101
sS'DZO2lmlHi41X19g9U44I1w'
p4052
I4877
sS'm6RU5Ov4C1uMQRr3J0Fvfg'
p4053
I4065
sS'L9qMRYzspbpdZozgn7GI3g'
p4054
I3567
sS'mvK1pv-x0Z5rP4Hz9cWBWw'
p4055
I701
sS'f'
p4056
I4069
sS'hvqGcmhpBvgRdGPUFVgWdg'
p4057
I4070
sS'sHwBXS0trP0CC_f5K_11VA'
p4058
I4071
sS'IqIpCfg0qDhIkaUJGKzlyw'
p4059
I4072
sS'MI3wG3R12sQuTGdNvBBX3A'
p4060
I3052
sS'3EAHMMsNnN4rrQVPPuzdnw'
p4061
I3929
sS'u6Rb0yrjDvYpAFOgXL8WXQ'
p4062
I4075
sS'LYwiaLv2SbVzeUCH0RdajA'
p4063
I4076
sS'13f_vtUZEmlzweL91bmVng'
p4064
I4077
sS'z_9oeZ5aN8g8AzPNENht8w'
p4065
I4078
sS'5fX9IC0SYx6oivxms2yKfQ'
p4066
I3081
sS'K0YWL6MJImHPlSY10Eq4fg'
p4067
I4080
sS'YBIjfRkq2Uml6xcdS_K0oQ'
p4068
I4081
sS'll9xYfxhRJ3gy3upckMrTQ'
p4069
I3633
sS'jJOBopqF-DOF3eJED-ffwg'
p4070
I4083
sS'shTVQJhu-NftZfRTUxYxrg'
p4071
I4084
sS'I4eTqRHq93iElqq4f5istw'
p4072
I1775
sS'LJ8U5ZVnFpF8XNUR7DcUng'
p4073
I3213
sS'tlxpbxBH8tNdM5bUmt4iww'
p4074
I4087
sS'JTVSbPB1EjjMu05JwWCP3A'
p4075
I4089
sS'nW7kOwA42JlgOufVxprPZw'
p4076
I3214
sS'BoRDC7m0JP1pm1OapkDG7A'
p4077
I4091
sS'_PogIvICTS-uaZLXLX-OnQ'
p4078
I2788
sS'U08FBOaRQCk-IAcHPAxzKA'
p4079
I4525
sS'W'
p4080
I2700
sS'89yr7wNIk8TE03yKfTRLuQ'
p4081
I3971
sS'vJ9GXhmGZhpZA_HSt4VhGA'
p4082
I483
sS'Enc_kuKsBHOeO0giwrWgCA'
p4083
I373
sS'9EeEpkZg5jV18N_KvrcT6g'
p4084
I4056
sS'QZNLJ68kuS51Tlqljvf3ow'
p4085
I4099
sS'vQ6VAfbyEnanyJaBKZqQBQ'
p4086
I4100
sS'hqojrGeufv6qYpN00R-OsA'
p4087
I4101
sS'JLv2Dmfj73-I0d9N41tz1A'
p4088
I3539
sS'D1cD5X3un9R6rfTwjXGL5g'
p4089
I4103
sS'Jpc99DcLrRRrFeT7rVK0cA'
p4090
I4104
sS'5JVY32_bmTBfIGpCCsnAfw'
p4091
I4105
sS'wHvO5kK43yjqkcQ4HdtNAQ'
p4092
I4106
sS's6QghJT6IHNxV5MX8a66tw'
p4093
I128
sS'H2KsGpTyOEhYnG1b1DtE-Q'
p4094
I4108
sS'Wk9rXJMzZZK9eG3yethHlg'
p4095
I4107
sS'f7e96Iodfmapqm3C_lrDcw'
p4096
I4110
sS'jj0t-2qLGl2g_odLBjxKOw'
p4097
I3570
sS'7clk7hJlh9U5Kkwq7IGLEw'
p4098
I4112
sS'MpRMV1IlT8jzfLdI0fGr1w'
p4099
I5003
sS'IFz_4XymbJ8eonWGcc3qkA'
p4100
I677
sS'rlphr1Hp6_x9e8yRGX42Fg'
p4101
I4115
sS'h9MZv5I1hvTX1kkzq-3Cvg'
p4102
I5048
sS'Jmq2U2ATDyN_aGazRiJTKA'
p4103
I4116
sS'BE4fE4R3TaVn8xy4sYYjbg'
p4104
I4117
sS'zK4R5IFl5aBqePPEd0fvxw'
p4105
I4118
sS'MYzWA_yx-zK0FI3LiJmSfw'
p4106
I4119
sS'_OGvAo_TAVNMCO84PT-WNQ'
p4107
I4120
sS'qkreXL6AorI19QA3f2wvlQ'
p4108
I4121
sS'cpcf4_LZ-OVJ6LPea4kx_Q'
p4109
I4122
sS'n31zWKg821H9iC8UDlQ-MQ'
p4110
I4123
sS'9mh76vFncdq6_uDnFv0qfA'
p4111
I4111
sS'QEOj5yViIq2SmylKt6o_5g'
p4112
I4125
sS'UtkjXTiMfGRz4R1zDF3Kxg'
p4113
I4126
sS'cMoQqT_j_FD1gO6EEZzOIg'
p4114
I4456
sS'-z2L3_8QgJv2qE1e5Y7N4g'
p4115
I4127
sS'q6XnQNNOEgvZaeizUgHTSw'
p4116
I4128
sS'BwpJ_b_cUX4XB71J4wm3qA'
p4117
I4129
sS'xsT4KZTu_KnOVavtuXn4RA'
p4118
I4130
sS'cCke3VtFLtqgzkgYSrSE2g'
p4119
I453
sS'Z1GkmmyhHAG8Q1e_QEOGgw'
p4120
I4132
sS'a4seSZMF9QxPBGAJ9MjaPw'
p4121
I4133
sS'5Gyj9vJ5zHq2udDovEnGOQ'
p4122
I4134
sS'UD1ENQnxnx5vfAQX6hg_sQ'
p4123
I4135
sS'rkxGrjk2WeAT5ZMfChT3kw'
p4124
I3205
sS'NSPc5WAzKjQr2D3SiFAeXg'
p4125
I4138
sS'sgO-W7YX6ZHeNHQFOl3nGA'
p4126
I4139
sS'3wB-JjsUjkvdNUDRnChsVg'
p4127
I4140
sS'3yeBxgUCl6sXtn2GTX1UNw'
p4128
I4141
sS'K_hCqC-OASPb22AEgOSGjQ'
p4129
I4142
sS'lSLxtm7Ju7-Q1k4LN6PGcg'
p4130
I4143
sS'Qrza-_Tu6MCBYZ4B1M06pQ'
p4131
I4144
sS'LRit-NfcHeVhnkSBiNIxUQ'
p4132
I4145
sS'oxJJ0N82GFZeBCxBi6vH1A'
p4133
I4146
sS'gkNZDtALn7b3z60JQIwtvQ'
p4134
I4147
sS'MUzkXfPS9JaMgJ907orz0g'
p4135
I4148
sS'RkVNb4DpKwehS3FAziAMVA'
p4136
I2922
sS'KtIh1kjkVESCqd2CCsQnhA'
p4137
I4150
sS'BiWYDNIf7gBBNRtP6YVwIA'
p4138
I4151
sS'D0CNNFo5-ut11tMQ1__Rxw'
p4139
I4152
sS'k3wjSI44_hXgqMiYHqah7g'
p4140
I3764
sS'-nW58FSWq4TBsErxJyAr9Q'
p4141
I2823
sS'CCaQxW7i9Xn6fa-XZdhn3g'
p4142
I4155
sS'VCMYANRTxn1euOqZgB4dEQ'
p4143
I4156
sS'x0KsUGST3w8fzYyQQ81FAw'
p4144
I5015
sS'pmKnNkGVgzhMkwJaTU5apA'
p4145
I3962
sS'oID4QGAu8v1mQfKOSEt_Bg'
p4146
I5016
sS'CoS9VbTzh74Hh7FSlAKKVA'
p4147
I4159
sS'Fr-rSVcHBq09MrvviJ1-hg'
p4148
I4160
sS'rzq5nqG2NG13o3ISxJSrsQ'
p4149
I4161
sS'HJdFNtGwRUpDI6KvorA4cw'
p4150
I4162
sS'hg71CGHy9bwpgY8cGVVg4w'
p4151
I4163
sS'cyWrqEUooJamPpbfq-k8hw'
p4152
I4170
sS'cYjzLu3fm-VbtjRMCuhK6Q'
p4153
I3522
sS'-AaBjWJYiQxXkCMDlXfPGw'
p4154
I4165
sS'EsPErKV3vyeXabGT4kpHIQ'
p4155
I4166
sS'jGUdsAMkurKYZCh6l84n7w'
p4156
I4167
sS'Z3AYjHqiFJccwaR9qUeOHQ'
p4157
I4168
sS'ZGiXcOTc508cAer5aZlQqg'
p4158
I3622
sS'3jZ7W7ZPXBCX7opq1IUdPw'
p4159
I0
sS'gUhL_vkTY_zwrzT71a73Bw'
p4160
I4171
sS'JcnZGx0dNLgsmkBcZj8oWQ'
p4161
I4172
sS'Z_8clYC-IkqrfHcTCjzAiA'
p4162
I2336
sS'pF7cTPM1wBAJV4us8AjfrA'
p4163
I4174
sS'w-w-k-QXosIKQ8HQVwU6IQ'
p4164
I4175
sS'bthMSDLzNdHuSskOfaeZhw'
p4165
I4176
sS'H42JuS0bQLf_G0iXeNUpwg'
p4166
I4177
sS'Lb37hatAjI3fgHEh2lMNEw'
p4167
I4178
sS'bsMGQruRQGgQZK4KA9Q4Aw'
p4168
I4179
sS'fNBbsjfpGXinu7ud0DyyIw'
p4169
I1536
sS'BclQLeF-geeAYb5Re98thA'
p4170
I2634
sS'qm796RfFpk4hWp2W9yEHCg'
p4171
I4182
sS'KAojuVhowyK7OpZnuBzxzQ'
p4172
I5020
sS'0-9YVzOkL51P7rtlaLBp9g'
p4173
I4184
sS'Q8ATLre_I260dn2J1siM5Q'
p4174
I4186
sS'zMCq1kmujBj_lDDko6g31A'
p4175
I4187
sS'JZF94TYQ9Yxiu7RN_eHXNQ'
p4176
I4188
sS'Qjrn5UsK2HBZxx40HYA1iQ'
p4177
I4189
sS'IS9yw8P2uAPBX6FNLLX4KA'
p4178
I4639
sS'iJ97UrvPlGNttp44qsJ-4A'
p4179
I4191
sS'lfX4Ay6lYeWQ2kSdAxJaDg'
p4180
I4192
sS'7zhra0LL0dLYo4Nmo5Q_xA'
p4181
I4193
sS'7dAGDV9HiFqCMIg24Rw5dg'
p4182
I4194
sS'C0RonzO64B4D3o6GtcMlxg'
p4183
I4195
sS'uWnVvgXhopXEPdEcI2vXrQ'
p4184
I4196
sS'oUK6Xs5dPPnP4whFeZExGg'
p4185
I4197
sS'HVQKFDi-vZbawtmLMq3ZOw'
p4186
I4199
sS'K6Z1NU_ofX4yiUqWtV1jNA'
p4187
I2418
sS'RtlxX-O4jg1oByuDBlGgcQ'
p4188
I4201
sS'FCxCu8P00bHyEj6Rg0Al4w'
p4189
I4202
sS'GJ8sWlT1qggd1YIf5zWe2w'
p4190
I4585
sS'vOG9YFFFn_OMyItk4WEebw'
p4191
I4203
sS'CjePPxjF5O5aeHTvTVXpOA'
p4192
I4204
sS'VAExcxlYFVzCgLuPmertmw'
p4193
I4206
sS'OHtgI80fhoIxoon-LlKVrw'
p4194
I4207
sS'CGRkejdGiNtvX-lhcOFUZQ'
p4195
I4208
sS'nabJKapjKahYfTtnBDG6JQ'
p4196
I215
sS'nwuO-ifpsecjxeFPYAFBwg'
p4197
I4211
sS'gqL5KBs2oS7qobnyd99iKg'
p4198
I1884
sS'vqvz7NZFudMM9Vzoq6hILQ'
p4199
I4213
sS'GNOX8PWWmaeKO1_3UlTygg'
p4200
I4214
sS'tlY0QMQDyfjQAEwHnzvFnw'
p4201
I4215
sS'iyR5YwpMnOCmbfvk4KKczA'
p4202
I4216
sS'LWwmuZJjI4jeB95fQGbG0Q'
p4203
I3259
sS'KT2EgE1Nv_-Ms8olYxEuFw'
p4204
I4218
sS'xEfWrET-mCCeoN4dSOLwNQ'
p4205
I3409
sS'D4IHMxZwxZRZMvkMEeSb1A'
p4206
I1541
sS'4lACNNOEfNBFuE4FsSY-7g'
p4207
I4221
sS'XrVI47iYDQJW04aFciW4eA'
p4208
I4222
sS'g64lOV39xSLRZO0aQQ6DeQ'
p4209
I4223
sS'bvGO_TqdIXFo-mNj2SsXhA'
p4210
I4385
sS'l0-VQ8nA_oijpKlRB7dkow'
p4211
I4224
sS'roBZAkSams3dGo9Pl_C-dw'
p4212
I4225
sS'Og1bB3jNZL_7bmgmZQ73Cw'
p4213
I4226
sS'91Mo2-qrDaZsFC2zM8Yuqw'
p4214
I4227
sS'kuRZJ2Xa6JDPVVXdlt6DJA'
p4215
I4228
sS'ya3mbvTaymecfrTc08SxhQ'
p4216
I4229
sS'8pONVRF4HDD9ynt5lCynTQ'
p4217
I4230
sS'oYOpG6EBaoIo45BQlrb0Iw'
p4218
I4231
sS'0Chi_CzoTmkw1NvZg0sksg'
p4219
I4232
sS'uWhC9eof98zPkvsalgaqJw'
p4220
I4109
sS'pQIADDOm1H1Yd04VDQfUbA'
p4221
I4233
sS'OIDpKC2p61qVO_spPqw1qA'
p4222
I2886
sS'EsOu51dW3UTDJTApBxwz2g'
p4223
I4235
sS'kS1MQHYwIfD0462PE61IBw'
p4224
I4236
sS'EID2miAhF8Z-XPHPzajhOA'
p4225
I3748
sS'uBGBtkZAerC-VcURTXmVWQ'
p4226
I4238
sS'f7pbQuon-3GbyNbzcNSQdQ'
p4227
I4240
sS'5l9GugRzua-G12VaolsjUA'
p4228
I4241
sS'ihqfOa0RpyhsU8zXOJpC_A'
p4229
I4242
sS'iD830SWH1YNrR8DipUe6Xw'
p4230
I4243
sS'HGTdyEDygTqANThO64WDWQ'
p4231
I4244
sS'woLSJl4U1Un0lfYTYpCUwg'
p4232
I4245
sS'mjPoAKnPHkxPs9EEb9TZjg'
p4233
I4963
sS'AtZ5hAERArUCN-9L6SnoPA'
p4234
I4246
sS'RmXIjppHNtVveguN10iO1g'
p4235
I3141
sS'ighhuf3rAKgKI2E-o9WDXA'
p4236
I4248
sS'HmN7p502YMJGkBNv5bzi1w'
p4237
I4249
sS'WDFDRmKp5Wu2doYSXJDeDQ'
p4238
I4250
sS'KhCN8Ehqx8IfPezcwqA0SA'
p4239
I4251
sS'Ma_gwnVShENgTuhHNpAvyQ'
p4240
I4252
sS'DNntARwKLJmAMH-FgihowQ'
p4241
I1478
sS'NwibUF9M0wwk1N1d4h-8Pg'
p4242
I4254
sS'kcLuh-ck_Zj07TsodaaNUA'
p4243
I4255
sS'HhVNG_1NOEyxfxudd6TSCg'
p4244
I4256
sS'sCiCkK_7CKNwzwo9c0PpKg'
p4245
I4257
sS'UhzrTq9-Sggy1SHkSY4Unw'
p4246
I4258
sS'o4AJoiOcHk7KGZfhdpOL2Q'
p4247
I4259
sS'uEvusDwoSymbJJ0auR3muQ'
p4248
I4260
sS'p7Zp54sz-ErtTD9s7MBeOQ'
p4249
I4261
sS'7QEKQJ30LyBNTaG-ocdGzw'
p4250
I4262
sS'gtJsj5RpF4dfE7uPVDRfDQ'
p4251
I4263
sS'UE253L6vW3b8rQhRHWWi3Q'
p4252
I4264
sS'CMdFQ0y0zvzBS2x6tjZcWA'
p4253
I4265
sS'zvQ7B3KZuFOX7pYLsOxhpA'
p4254
I3533
sS'zUe6ERJ_jVDawBof4emCkQ'
p4255
I4267
sS'0_F9CqmQr80sH2o0rZCHFw'
p4256
I3559
sS'agqCf3e8riY9uvAd0IG74w'
p4257
I4269
sS'ajMm_rBqbKYALu-I8-__Kg'
p4258
I4270
sS'GEmaBgrBPzUs92tUkIM2VA'
p4259
I4271
sS'dDsI6CMFIrBHJ68b8KZNCA'
p4260
I4359
sS'a6nMi5T5w6rd3kuZLC6YHw'
p4261
I4272
sS'0FMte0z-repSVWSJ_BaQTg'
p4262
I4273
sS'njJjEOLRTo03Fwp4jg_Jpg'
p4263
I4274
sS'eTvp_hYnsrI5-ow_sQ31_g'
p4264
I4131
sS'a2E50HoU89NLZvh1YP8fgA'
p4265
I4276
sS'NV0u95G-WcjZRAfCX-jcWw'
p4266
I4277
sS'5v1OwXLi9RgErLclZKxCEQ'
p4267
I4279
sS'peuxbSQwXed-81cSqL7Ykw'
p4268
I4280
sS'RhpaXVpwiMoVs4gQMehauQ'
p4269
I4281
sS'm6xIwssdiGweFRaSIWTx4g'
p4270
I4282
sS'W3Z5K5Ks4PJHo_RFexaqdA'
p4271
I3317
sS'-TtbBXTW_mCKdZ-mhqubTw'
p4272
I4284
sS'd1VXeXMq67_QgdvWY1tcKQ'
p4273
I4285
sS'2iS1vg5TYpV_iEiNC8osTg'
p4274
I4286
sS'cRswprTqOiV1riVO25EqIw'
p4275
I4287
sS'kFtpOzWygqAENd6oKrkefw'
p4276
I4288
sS'4MJ7go3WJwIcak_17vWw9w'
p4277
I4649
sS'AX7PN-tAH5vUO5KRbKEVZQ'
p4278
I4289
sS'4lng77gRdpRb24o91sSihA'
p4279
I4290
sS'WG3w_73scm_JUWJ_3Lgn0Q'
p4280
I59
sS'4U380Xqra6lpKWZ6FoO58w'
p4281
I4292
sS'vRjVhl3ONG2GfWY4NXJZbQ'
p4282
I4293
sS'ayQ359DLXkb6arYEYGn2ow'
p4283
I4294
sS'RdGgH2C655oklnPT3oZJ0A'
p4284
I4295
sS'f1MFQxTZAWJnRQdrouLg_A'
p4285
I4296
sS'KZ20ACDNSnrYWvox_zda0Q'
p4286
I4297
sS'TQ9A1LVp6z-fIc494RsLDQ'
p4287
I4298
sS'89CBxRWFAaA1k2UufxVUCg'
p4288
I4299
sS'mROok9JZx19AwvOJlI8FHQ'
p4289
I107
sS'oPmMbyow9CWs8f6An4kAxA'
p4290
I4301
sS'bQ_qlqlZRFgfRlqveB-ILg'
p4291
I4302
sS'bV9-z3ouvgOC89dOkmHsMw'
p4292
I4303
sS'HaoPeg2ySVEbQKN3gySxHQ'
p4293
I4032
sS'o-t-i7nbT5N_cmkCXs5oDQ'
p4294
I2412
sS'cDz4PbqLBkn2FLqMtNaXAg'
p4295
I4306
sS'Mcrnc7O4-yyPyu0iLbb8aA'
p4296
I4307
sS'LP59kBNEHmASJZWynra29g'
p4297
I4308
sS'azivU1jkJhPSKS6ASMegQQ'
p4298
I4309
sS'sZo-AQkZgrcBjYKFlfB5nQ'
p4299
I4310
sS'UwmtWzBdbi4AAJiuBrXrQA'
p4300
I4311
sS'7wG8hZVzWfFASDK3QJbP-A'
p4301
I4312
sS'sXLAy83l7EwdZjsYFbaq0A'
p4302
I4313
sS'50V3UxV1yeHnnXKQWKD0pA'
p4303
I3789
sS'RFuMyqihKYlTKx8SNAjrVw'
p4304
I4315
sS'o84KZeqgy0YGLmz5I9P-pg'
p4305
I4316
sS'H2VuJ3zigG9GOy9nRAusjg'
p4306
I4317
sS'NNF53TdDIJgeVwYxczklgA'
p4307
I194
sS'X1F36cz2T2IfoCjhZP8uDA'
p4308
I2752
sS'nlowCDWvJBurOGGMXzjqHA'
p4309
I4320
sS'B_FU78XGYUL3zkPSUGC7aQ'
p4310
I4321
sS'8QKrhvVqhEkD8xo4E4s0GQ'
p4311
I4205
sS'jizIqrVtLsGT-baeYNDyLg'
p4312
I1577
sS'A_OETe5Xr26FTNRPkRQ4zw'
p4313
I4324
sS'7bwDw99gKkuxr-zBtzqvCg'
p4314
I233
sS'qnF-Fo5VDP5Tp2PxFsBNkQ'
p4315
I3037
sS'6M8arqvzW9M8Y3PE2xfQgg'
p4316
I4327
sS'ajiBmXVNJ9FFUKMIJRSh7g'
p4317
I4328
sS'8M6suLprYcMngrJjhYl_lw'
p4318
I4329
sS'vgwdQ0fpDZdoTidJuwYq7w'
p4319
I4330
sS'_3nzCdwExy2AneQ8itz4Yg'
p4320
I4331
sS'q4zz2Pmx9KyFVurpqZYftg'
p4321
I4332
sS'eElrvnBme9B9IeiQEL-jTQ'
p4322
I4333
sS'ymiohz-DlNLHGAlXbVhw5A'
p4323
I4334
sS'_6qzYTyQ3lV9DJqoep7_og'
p4324
I2952
sS'mXl8GMozjLoraG7PyFHWkg'
p4325
I3267
sS'NS-aytcEi32E0h0POPWfiQ'
p4326
I308
sS'j_j4DLfvNkhCRNWC0VBS9g'
p4327
I4337
sS'Z1Ce1N6F7vw9pKnsv8MtRA'
p4328
I4338
sS'Q2fDJ4KtMruoSy420jUElQ'
p4329
I4339
sS'O8RYLkWNmZYr2HgKWsmwiQ'
p4330
I4341
sS'-lLEwwXKARlLhAd05tfmVA'
p4331
I4342
sS'G-_KF_Ul4d3WGEa-G0Iq4g'
p4332
I3761
sS'958-hEW7UFGEsGs30ySnfw'
p4333
I4344
sS'DsKCvpCXcS0tjWwGGnVEsA'
p4334
I4345
sS'XaMwHlRaUfsSjBewVAbiQw'
p4335
I4346
sS'6u82x6PkhQD2zm6Qa3mxCw'
p4336
I4347
sS'3CMiTAhq_o_GP1tLs-ihbg'
p4337
I4348
sS'1BTadkt9lZPGj0xcZR1pZQ'
p4338
I4407
sS'9zoJpon1WtaRO0Q8g4NFxw'
p4339
I4349
sS'BzkXyR-45yc8EJeVySMJWg'
p4340
I4710
sS'gvYdMI_M6clQDGkrAvbRuA'
p4341
I4350
sS'JzP5uJjhZb0Vj8J_bn3mOg'
p4342
I4291
sS'fNuNDMsPrW7tThOK4-JQTw'
p4343
I4383
sS'qK5GQYyckJx_5tyqDtqrXw'
p4344
I4352
sS'CiJat5Up2jAO3B0qTbiN5Q'
p4345
I1306
sS'v9ZgIl22Q813cCfv1e9RLw'
p4346
I4354
sS'yocUoAflwaRsnyUf6ceQwA'
p4347
I4355
sS'sXJwXEHR64393fWO4Qdq6A'
p4348
I430
sS'3JgcaZf9MLt4Q5hbZ6Pwxw'
p4349
I4357
sS'03RJcIDcNwH4WQmqjIvwIw'
p4350
I4358
sS'CkqmyV3UWUd70oM3F-PahQ'
p4351
I441
sS'vWP8-aQX0rYJszqkWVL7Ew'
p4352
I4360
sS'YThAB7DWpxCLvYJLTkU0PQ'
p4353
I3483
sS'EpAkqFJLjztmlAscrTfh_Q'
p4354
I3040
sS'yNz0SODhnstRuEiLYWLELw'
p4355
I4363
sS'EebIIcoDdqH6WF2COxFipg'
p4356
I4364
sS'hOzOTyBQHk4WXmiTGaOy4Q'
p4357
I5047
sS'LU7ikPXZ5R8tv4oNQZQkKw'
p4358
I482
sS'TqXAebtAtO90ZmN_odc8mQ'
p4359
I4367
sS'YJ0eisRoko-F7T0P3W7x_w'
p4360
I4368
sS'hsGsSMwoa7tR7ZLhC0kRGg'
p4361
I4369
sS'qPVtjjp8sNQ32p9860SR9Q'
p4362
I3338
sS'5bgsQymr8HDT3tyC1N3Uhg'
p4363
I4372
sS'1vh3MGM67d8HG2ZrkQfOXQ'
p4364
I522
sS'qmVXmbchh1V-PYSpvWU_rw'
p4365
I4374
sS'dGeqb6TvtiniqHFVgPaYgg'
p4366
I3422
sS'jzV56K7A_mx3y3Eh7YG26g'
p4367
I4376
sS'yBByHjBmvXVWOJVR5HWjcg'
p4368
I4377
sS'1pYaKw-hSbi9pHP06TJzNg'
p4369
I318
sS'GQwiY_PvTUtdtnt8cCjmfQ'
p4370
I4379
sS'U6LgkUFWmmmfMTrzh5o6Nw'
p4371
I4380
sS'YJYFsF4z-C2qODH5HnGXiw'
p4372
I4381
sS'fHS0bQ-l5rHME_xXKQSYXQ'
p4373
I4382
sS'JSzIwMqdSI74_ztnbWzsEA'
p4374
I1251
sS'fES_Ws1CDBUw7vcTJzr8CA'
p4375
I4384
sS'Un9kXZRrhnfdhaW33OwLFg'
p4376
I5111
sS'Il9EB1SLBALhvp7GOVMokw'
p4377
I578
sS'X_wC1rgLot5xYG1-fzEpaQ'
p4378
I4386
sS'H74c_2LheXJmtEJd2EV6WQ'
p4379
I4387
sS'E_9WOCYIGHtT2nbcY4_t4w'
p4380
I4388
sS'nT-sNbcZDDo_9cWBPQSMQA'
p4381
I4389
sS'Y0DSxhhChQwzoQsLeDuvRw'
p4382
I4997
sS'j-1qkha4h87wMfNfwPvfqQ'
p4383
I1980
sS'mWovMFEZgWE40UVchWHlWA'
p4384
I623
sS'UDejHKry6QUTdAyo5EZOzA'
p4385
I631
sS'_HlF1_dpaL3RAE8u8KoWUg'
p4386
I639
sS'6tPXsiDVPbJhHpufXZye0g'
p4387
I4395
sS'EdrZZEfl6CHkgw-BjDcHsA'
p4388
I3965
sS'LtORBLxUc1cMxD7kvN7KXQ'
p4389
I4397
sS'kxWUjoQSss3yJYyC6exiGQ'
p4390
I4398
sS'3QnoTcrxuafMCoTzW_AH7A'
p4391
I4943
sS'5vbWzMFsoOOPKj5Iuh4xkw'
p4392
I4400
sS'WoeltQJcPLA0_Lvhg25gsQ'
p4393
I2287
sS'9Gdifl4r1t6lHdEu4gzhiA'
p4394
I4402
sS'xzWwfb0iVk4w8u1laXmuSg'
p4395
I4403
sS'RBZ_kMjowV0t6_nv2UKaDQ'
p4396
I4404
sS'aUhcscNphAJQlZe1R_WRow'
p4397
I4405
sS'5TxdXjpAz0pR6RrozNd6fg'
p4398
I4406
sS'KByQyI9XNpTma29oeYAwRQ'
p4399
I1574
sS'z4OaDgJ88joTi038EM59sg'
p4400
I4408
sS'txu_KwZOGYG6O3yYHjztbg'
p4401
I4409
sS'I_5SJx93OGeBRmu82q-7Ow'
p4402
I4396
sS'0Puy6PcLNSBct5uZhCsjBQ'
p4403
I4411
sS'brmLpX2ZVxt2-4m4h8yEvw'
p4404
I4412
sS'ss1PGLjfjitXP2o0_95SCA'
p4405
I4413
sS'djxnI8Ux8ZYQJhiOQkrRhA'
p4406
I4414
sS'nxWrhF_hyX0wwjrEkQX8uQ'
p4407
I4415
sS'vf4vSva7sCI0K4UAjHrJgw'
p4408
I755
sS'CxDOIDnH8gp9KXzpBHJYXw'
p4409
I759
sS'vzuuridzMcvxqbSrwi2rMw'
p4410
I2015
sS'vcOtDqQ2Cc731kFjklFeBg'
p4411
I7
sS'IcdxwCBX6rNHwlcFJEVVtQ'
p4412
I4420
sS'xQ6Vc9YHh6JU2JltPZcEiA'
p4413
I783
sS'Kr_D_9w7fOEukZ8e6ikgAw'
p4414
I4423
sS'NNL1zLTP2J_SOputgoPYeQ'
p4415
I4424
sS'iRun7Wy0frkfQPTe6ZUnMA'
p4416
I797
sS'uK8w_LkfsNXKlBC1a_uhQA'
p4417
I4426
sS'evDmfYHbxqDAy8_27bAUNg'
p4418
I4427
sS'7D0DvTzJVPJp-3G2j2bzCg'
p4419
I4154
sS'4MzTss4Hn2sVvwb317xxpw'
p4420
I505
sS'Goeb2D2E99xss3tMrX--FQ'
p4421
I4431
sS'r-Ck0JPoMfHI7h2X0brm2w'
p4422
I4432
sS'1_aWNbm6gEgV_Lme_lZ3NQ'
p4423
I4433
sS'8kgQupO4TS2bpCGSPhTTIg'
p4424
I4434
sS't9OAdJcdL3suwm0jsAzQEw'
p4425
I4435
sS'WoHvS1xCeyikaBATXpd_cw'
p4426
I4436
sS'gOPm2yoe38_OM6x4NIwLEw'
p4427
I4437
sS'SitYDdmJtpyi8V7vNJcBCg'
p4428
I3917
sS'2iSBJHVMNsolJ3AH1g_D7A'
p4429
I4439
sS'aB867JHc0gxKujKuLeIxNQ'
p4430
I4440
sS'eJ-mT-cK2V2RJQApZjD7Pw'
p4431
I4441
sS'HxyLRaoH9PS09M6R3rV-EQ'
p4432
I4442
sS'HpyiJBzaloUGH7wOaQchyQ'
p4433
I4443
sS'BsfZ3P6huGAVXG1TdZpQ6A'
p4434
I899
sS'1bG9ndpgpD9hE9tG5HcKtg'
p4435
I4445
sS'Fsi2EBMAS6iTZ5TVnKnevA'
p4436
I4446
sS'k0_iJys8a5Z_qCggcE8X7w'
p4437
I916
sS'yjB2Qk3laqrWqyBZ640k_g'
p4438
I4448
sS'5TlkaYNie2xjv7nXW12Svg'
p4439
I4449
sS'iH5YQPtx1qrNG4t2-DjI3Q'
p4440
I4450
sS'dKKvpFh7QrplB3e0EEh8Rg'
p4441
I4451
sS'dCnxB2z1p8EqfM8jkaa-vw'
p4442
I4452
sS'bURNbPAnm_pxFiB5LvA4ug'
p4443
I4453
sS'3FMK2LpNHcUyuY09_4bGFw'
p4444
I4454
sS'c9-jEIfBnLa4iNHxVmXAHA'
p4445
I4455
sS'ZBLZIOrO3DZJzDFlFO-bJw'
p4446
I3266
sS'IVo_5i_pBbQGnlmkvKRk-g'
p4447
I4457
sS'w3dRT20CwQSNJ6GLGbM4SA'
p4448
I964
sS'l06vY3W92fSrD6vdmnqMMQ'
p4449
I1103
sS'AkBtT43dYcttxQ3qOzPBAg'
p4450
I3026
sS'nJbdqWu2t1WtpsRK8MuB_A'
p4451
I4462
sS'H_DAhIymP_8kpu1kw07Xtw'
p4452
I4463
sS'ULK94n8lgBIG0_F1aIYhvQ'
p4453
I993
sS'jT1japLeFEucHwEaEmFf5g'
p4454
I996
sS'W5VmqP2T4O_aAMq5YwTJzQ'
p4455
I4466
sS'aIA3Xo5YH4cg7MlHMhgxAg'
p4456
I4468
sS'7kPR3NAhl72EGbUU1h9FOw'
p4457
I1957
sS'w5bAI7USuCvyl8kZzj6sQw'
p4458
I4470
sS'vzoB7-jmn63BwnnIxL7yWw'
p4459
I3379
sS'JjTusdmnjHxKe-Kqwr0YGA'
p4460
I1036
sS'QR8XFFHYU-X0epXOrDbrXw'
p4461
I3269
sS'Mu6wz7_d6OBgRqkl4_NaXw'
p4462
I4474
sS'R67_W_HXmsO-bd872AKw8Q'
p4463
I1059
sS'RdtD_EaJolktp6qgHjx24g'
p4464
I4476
sS'IFkSQLXXTMACoWirAYI1jw'
p4465
I1064
sS'rls4xC1sFAy6aLAoLtwXPA'
p4466
I3035
sS'P0wENWX4LNg84G-nsqcGFg'
p4467
I5166
sS'XS6BZP7JwKUERqtXiWxxJw'
p4468
I4479
sS'1OocYCAZixwbAXueW75FMw'
p4469
I4480
sS'DIsr8FUzz-7kuxBcO7-E7Q'
p4470
I4481
sS'iAevEfcmtCr2cpd6IRqnTA'
p4471
I4482
sS'MSbNzOfSVAfa4XgppUwgCQ'
p4472
I4483
sS'WKfoKNPk_-KbzVpCCY261g'
p4473
I4391
sS'hzmTQMkTGTUQ-aRdKAcUzA'
p4474
I4485
sS'U'
p4475
I5150
sS'rplzMW65JoaMhETvkAKacQ'
p4476
I1122
sS'ShNLdJa5lxOaHKhUjtfnSw'
p4477
I4487
sS'pQ6jXAENt9gUHqQvXl4DTg'
p4478
I4488
sS'4iOc4Fo-h6gZ-2zAJEM78g'
p4479
I4489
sS'P2eC8SdUu1rWIhEolv9JjA'
p4480
I4702
sS'lt9vlWEaHsILoBBOEwX4MA'
p4481
I4490
sS'7OMW9n8tWNDg4eHGcDSL3Q'
p4482
I1165
sS'St-BJl91Y8k1MUborKBRhA'
p4483
I4492
sS'UtmsHIyNNgeVZlm6CYLWjA'
p4484
I4493
sS'bNkUkCOWnCuJ-9B5ELHbaQ'
p4485
I4494
sS'rsW5CeBtf7pSkZFfrlFUgg'
p4486
I4496
sS'F3lu1icxJX5A5tCw-jVpTg'
p4487
I4497
sS'Wu0yySWcHQ5tZ_59HNiamg'
p4488
I4498
sS'rv9d5TcnnxuOCX7ole_Clg'
p4489
I4428
sS'UQFE3BT1rsIYrcDvu_XVow'
p4490
I1211
sS'w_L_pYt3830sy_zWJwjORQ'
p4491
I4501
sS'8UJFLOgTuq0tw_bkKiKbEA'
p4492
I4502
sS'EMMzx-gGDKsU4enmbae6dw'
p4493
I4503
sS'REXsFXjXfh8MlwwtJxnFEQ'
p4494
I2576
sS'FTNaQZ3t0dsVWw1WZUQGFg'
p4495
I4429
sS'4ENBFSuIT-8vfRHZysQHag'
p4496
I4506
sS'0zDHiDbj79uBOy3OAcE25A'
p4497
I761
sS'vlrAxP8VNwsQO6kB4DM48w'
p4498
I4508
sS'ELcQDlf69kb-ihJfxZyL0A'
p4499
I4509
sS'e0lV0WyRCYbYs9k6chh8YA'
p4500
I1264
sS'2vB-TT0KRGuIYlpWOgIPHw'
p4501
I4038
sS'-kLVfaJytOJY2-QdQoCcNQ'
p4502
I3090
sS'uqTVZBYO1m6QlyET5oHyhg'
p4503
I4513
sS'sBkm5dZgoZXBNb5W6YQj7Q'
p4504
I4514
sS'HyXK2GNR9i4SWpLQGOqQYQ'
p4505
I1871
sS'QS7S2UcxbUg992aQD3EeMg'
p4506
I1044
sS'a7s-iv5ttk6jyHBVXt5ejA'
p4507
I4517
sS'qPGhjScyxtuHrWXN4A8VXg'
p4508
I4518
sS'hvs6n04dKZheWJVzhB7TDg'
p4509
I1322
sS'pjxgZ_tjfP4xibXL3jofPg'
p4510
I4520
sS'9E1ZgRNi2F9SM1WAFHj0DQ'
p4511
I4521
sS'lMLPQoeBq77bYxFvvcgvZA'
p4512
I1335
sS'eSlOI3GhroEtcbaD_nFXJQ'
p4513
I4523
sS'-gJJzPghhC_gwHT-D8wlKQ'
p4514
I1356
sS'6JehEvdoCvZPJ_XIxnzIIw'
p4515
I1105
sS'k4E2pM2mbMiIFHukuP2_tA'
p4516
I4526
sS'F9vYcUknd9JY2lxsaEObQQ'
p4517
I4527
sS'IVTJIQEWwgZZBZjVtguJDQ'
p4518
I131
sS'vgSiBVyjyfVSU0v7hHlcew'
p4519
I4529
sS'jdaWWXL44ETJ4RkXdKx2DA'
p4520
I1389
sS'7LmJ87EijrHcoYRu9WgoHg'
p4521
I4531
sS'NgapNNErXajBp6Ro5I21Jg'
p4522
I4532
sS'UJcXryv3GnXik-dauejBdQ'
p4523
I1847
sS'nth2pi8IvNgx43Tntgq3ug'
p4524
I2790
sS'PsF-A4zQ2n7o1SF6oUNjcw'
p4525
I2354
sS'-ZHlPAvlVdgtiu6DiCq7Yg'
p4526
I1430
sS'ax7SnXOTIpatbsmqHLqVow'
p4527
I4537
sS'hSE3_ZdkaILWxxVrw_mt9g'
p4528
I4538
sS'l0MBP2olaZc5_SP5nWTCWg'
p4529
I1439
sS'WaqPitgrhpepyvFo2jcUBQ'
p4530
I5072
sS'0AlnetQ_-a4f7kY0Sker2w'
p4531
I4540
sS'h4o8e_Xbca2kXQO_vzOqgg'
p4532
I1452
sS'p4dved0OUoh-lKaXSTdCXA'
p4533
I4542
sS'zAFS5GwqdQH9ZlwgL5ywAQ'
p4534
I4543
sS'sZYxLqJngI38GBEd9AYe2w'
p4535
I4544
sS'i6w1V5iPWdYKVPnZLOeLkA'
p4536
I4545
sS'SqVUNVeYJblyoUz4e-Fiqw'
p4537
I4546
sS'8RcEwGrFIgkt9WQ35E6SnQ'
p4538
I5073
sS'UmXzwFM2OkZHWJ5cJZlqkg'
p4539
I4547
sS'XiFzYeOUdkL1HxVFlPsHSA'
p4540
I3534
sS'5mOW6BKTYPVa1OPyLStVFg'
p4541
I4549
sS'nzsv-p1O8gCfP3XijfQrIw'
p4542
I3286
sS'RdWSULQ8vryTjiC7O2r5wA'
p4543
I1510
sS'r2ES4hClsS5TkQdCcp5ZQw'
p4544
I4552
sS'3_VJtoQDyvvhIDhnNaaL_A'
p4545
I4553
sS'4nZlMrDw-mrvmfEVT-cQrw'
p4546
I4554
sS'7U7MI0-KyE8QY4ov1lfsYw'
p4547
I4555
sS'DSpFOTOSCAh3LEv3L1fPPQ'
p4548
I1007
sS'c-Dja5bexzEWBufNsHfRrQ'
p4549
I4557
sS'TmljCl6px9_1D-V1dEUR-w'
p4550
I1560
sS'_muhtS8ZFnV61s7Q4JXDwQ'
p4551
I4559
sS'wJgtf18VKKZq9A6ZQUybQw'
p4552
I4173
sS'NAVcjWhzqyaLtPbuBIP5Tg'
p4553
I1570
sS'WPl2gULxrrh_GoypMzHF-A'
p4554
I1576
sS'VjzK7jhmyC5KManY_z-x0g'
p4555
I4563
sS'hvOlTjSeucPuK_LJC7fU8w'
p4556
I4564
sS'ThkRYqLyPL9pdethCPs8Bw'
p4557
I1587
sS'Z-1RtSKYQHmqEGpaphnygg'
p4558
I1590
sS'8qtsJtmefjJZIFM6_Ksd7A'
p4559
I4567
sS'dvu83QWKsnnbGvNVQ3mv7A'
p4560
I4568
sS'0x9xu_b0Ct_6hG6jaxpztw'
p4561
I4569
sS'58yXn5Y4409kc9q88YwU6w'
p4562
I4570
sS'_1SciRXzQ3tH31geMXe3RQ'
p4563
I1610
sS'xmacKmbK9Ls4kISJ2Smo9w'
p4564
I4572
sS'kjZtjQkguETdO6etSfTc0g'
p4565
I1817
sS'HPJY5cQ7Za6Hi07eB3gvZA'
p4566
I4574
sS'b8EnjL9DwA6rNDQ9yoIwWg'
p4567
I4575
sS'xVuXPljZRPk90K30A8kupg'
p4568
I4576
sS'5cd9IdAV9Dce3BdRDh9qCQ'
p4569
I4577
sS'xiBGreimmO1XYqznZIwv1w'
p4570
I1279
sS'A9RKvWz-as6hzSKS_xwVrw'
p4571
I4579
sS'chG58EhXagCSvub2-a73RA'
p4572
I2469
sS'CSvgpDZt8i_JvThh7E9Otw'
p4573
I1458
sS'D5pLDxsdxzTxMSjl8XbY2A'
p4574
I1670
sS'vnpfnIsSFzInHaXgP4doLQ'
p4575
I3951
sS'E2CuwvUZdhvrAvvNdmmN8A'
p4576
I4584
sS'ZjTzwlXBbg6-I4vtXTLHHQ'
p4577
I1116
sS'vRuHPM06W9iQJXK8XHbC3Q'
p4578
I4586
sS'0BBUmH7Krcax1RZgbH4fSA'
p4579
I3416
sS'9G-iVpUwnPUz8rbcQmKajw'
p4580
I4588
sS'Hxx8FmhpxiugIrGRh8RDOg'
p4581
I4589
sS'kLm3B6LeboEZWX_4otpILA'
p4582
I4590
sS'bhJ6ivAuSpgXP4JiKWjSZQ'
p4583
I1725
sS'8A4Xbr9SUkNqoZ54GFDTAg'
p4584
I3757
sS'ivW0Vad81qJ8SIgqJ8p1Mw'
p4585
I4593
sS'pbrmg9XPaGQbbFiuqL1_SQ'
p4586
I3388
sS'INxvh4Rixsdfzh6PcWc_pw'
p4587
I4595
sS'qrzo6epsAUau7pC-EWSPKA'
p4588
I1743
sS'gD9a4wXND51R3c9lpbf_Lg'
p4589
I4180
sS'oyXIV-9GRBBZrFydPCaR2w'
p4590
I4598
sS'vD0XRuZnvRzhJS2Xxzipwg'
p4591
I4599
sS'tgTt8j-UCJyJxvK58yDA-g'
p4592
I4600
sS'QVNFi8ssjPtHY5I9M1vb8Q'
p4593
I4601
sS'EyaluppfmU_oI5pb2jF1TQ'
p4594
I2453
sS'ptBRc6my502eVi3PWs50ZQ'
p4595
I4603
sS'Db6HgfXl5zX13PVYGfNR_Q'
p4596
I4915
sS'P5bUL3Engv-2z6kKohB6qQ'
p4597
I4605
sS'a8QNaErKMX1GTPfBPaH-bA'
p4598
I3498
sS'KdDLBUJul0e8Hqw0_ztXLQ'
p4599
I3657
sS'tmxIsLKcNd9qG6nbL6ONbg'
p4600
I4609
sS'm02o_W4fxnCw5xnoKIb1PA'
p4601
I4610
sS'7UYkPrdGE2w2GCTaCZF95Q'
p4602
I4611
sS'IDl8QswIXwI6Fr6KW3TbRw'
p4603
I4612
sS'IvVe8LaHBuhjEw6GvjhOoA'
p4604
I4613
sS'7lq0aObOwhFmO7PlYCbwdA'
p4605
I4614
sS'2BHVz9wWG2WCJ7neA3cn4w'
p4606
I4615
sS'TAzGPFt9x99JCYWtDmZDWg'
p4607
I4616
sS'oCYxjlqjpnW5WJAo6HNR0A'
p4608
I4617
sS'sh3V6hnNMLVV9YwFA9QNaw'
p4609
I4618
sS'Myy-tV1aKksxkQ2R7QUkAQ'
p4610
I4619
sS'q16FcvZyP5SURJEX8iGcTg'
p4611
I2451
sS'P18BGSKA-lFEqqFu738uPw'
p4612
I4621
sS'h4HT7k8q2RnV9NSQdcjBYQ'
p4613
I2660
sS'MxnNT3MSGco7hQN6-pCNow'
p4614
I4623
sS'PkRZYgz-Oq1dnjbRayIzwA'
p4615
I923
sS'vsKRK50xBL8hy3Kb_dqGlg'
p4616
I2228
sS'e6K4JQZEltqZ6o7uhq2kTQ'
p4617
I1931
sS'nkN_do3fJ9xekchVC-v68A'
p4618
I3775
sS'AJcMGNI_3CFHfhOZfUEfBw'
p4619
I4628
sS'QwZaQ_G_AYArFE9G9oMPMQ'
p4620
I360
sS'gH40ouZQR9fonXwn-4ko-A'
p4621
I4630
sS'tvFpp0WS0PGf-wjFn6shMg'
p4622
I4690
sS'qs4kM3kgCixzNBP_4sAhVg'
p4623
I4631
sS'Qv0xMxEs9XHEqI_9zb8vcQ'
p4624
I4632
sS'jveIBHpWOfZFv24luiDjPA'
p4625
I4633
sS'iuoWUmvleAusz0_T5iHNHg'
p4626
I328
sS'kKTcYPz47sCDH1_ylnE4ZQ'
p4627
I1860
sS'iqHbDGyKhZdjvbNx4s0hPg'
p4628
I4636
sS'CS6mIboxyuYyVMAHWbyptw'
p4629
I4637
sS'JvNMi2Oh6o6SfcIsq73KNA'
p4630
I4638
sS'aKY4eFOJeCaXnw1jGPozTw'
p4631
I4867
sS'Jjuc1_S7cSPP6SUZbBHy9A'
p4632
I394
sS'gFsqraWQfG46ohVFRg_d3A'
p4633
I4642
sS'cZ16H_Fc3s2-2AYrs-LEJg'
p4634
I3824
sS'qurv1eJZswxUZaZqN53Meg'
p4635
I4644
sS'6mgYTBGN1Ig2thDBCjmLwQ'
p4636
I4645
sS'kM4XGh6HxCSWR2CAzIQ0Yw'
p4637
I4646
sS'1oJnXtkMUR6ce4rd65hLEQ'
p4638
I4093
sS'XJYFjbH-oTmu2dATTqyauQ'
p4639
I4648
sS'LnZUtFx6qTWs8NV6lAARxQ'
p4640
I3811
sS'udv5ait3I7rEA-nl8vBdCg'
p4641
I4650
sS'qWYEuBZP7av55tewg3PXKg'
p4642
I4651
sS'OLn8EvPsu4hNug8V5PF2jA'
p4643
I2083
sS'Hbg37o5_zraMupiEcq8UnA'
p4644
I4653
sS'88CE9oPH4O-0pO2VTc8j4g'
p4645
I3904
sS'QPgXLWsDRplZilp2OciAiw'
p4646
I4654
sS'2fjgvviatKXfPyZYVaI3DA'
p4647
I4655
sS'Gw4UiyZjER7GuyGbwSRIQw'
p4648
I4656
sS'R5L_n0n-6_HQa11bZrbLig'
p4649
I4657
sS'Gh7a3aAOlB2zMRocFzGEZg'
p4650
I1758
sS'SLHeaGvcew77mpermtd3Ag'
p4651
I3649
sS'n6GBeJVd1C2dszlSOBAfJw'
p4652
I4660
sS'6rGVoAI0Bl8ZEbMNJWOK3w'
p4653
I5092
sS'ZpUI9ze0YlA6nMSHwx3ZYQ'
p4654
I2130
sS'wczP8ehoY_SWCRRLFuSNrg'
p4655
I4662
sS'qi5dnSkHL4hzNQtxVx7Nuw'
p4656
I3334
sS'hHDltEEGlvuhRjDvfbYpqg'
p4657
I4664
sS'kxA0vTDi1KABuA5Tgg1HKA'
p4658
I4335
sS'LRQTlvVNh1u-vVEg_2-Nag'
p4659
I4351
sS'4AYfs8d7M2H4TBEiHhHTdQ'
p4660
I4666
sS'g5od9T4-hBMqKPdzsdPGOA'
p4661
I4667
sS'IhmBr-yHC8xLjdnoq7O37w'
p4662
I3878
sS'M9rRM6Eo5YbKLKMG5QiIPA'
p4663
I4670
sS'df3kNNGt5nykGt4Q6MH1ew'
p4664
I2729
sS'QjNjVF-ZdWr-P4zUzXwpVA'
p4665
I4672
sS's16-BUo-orUsELvMu5ocKg'
p4666
I4673
sS'g2suJFocl9hulyB67UQCVA'
p4667
I4530
sS'4LXaLFib9dOAavCN7gnE_g'
p4668
I746
sS'5iRCT4uAsyP1UoEUoxbylA'
p4669
I2632
sS'_72QdatN4fPKO5QSNGFYRA'
p4670
I4676
sS'ypYEK8nw6N71jVrQBv09Ag'
p4671
I4677
sS'nbCTxeII8DAB__LG-6aU3A'
p4672
I1799
sS'HI3CVYpg_GXNl0P-dC8KDA'
p4673
I4679
sS'6AnWkbMbuYJ8BLupWTojrQ'
p4674
I4680
sS'A2N4y0VeZ-3TtmBVCSVVnQ'
p4675
I4681
sS'ZMBIjbnvatw6Z6JNPlS99Q'
p4676
I3050
sS'jXIJnnyxXxizxNYEo2ze-A'
p4677
I4683
sS'DsHsuhUvyyW_75zFcJxkKw'
p4678
I3745
sS'D96pOQ39yzgoJWObBZ9Wzg'
p4679
I1500
sS'M6olJVnPF00VnRDdigWrJw'
p4680
I4685
sS'iaBB_SOoNlGXbqEJ3ISFlg'
p4681
I4686
sS'6oJzbP6dqPYoaSuCNKaITw'
p4682
I2299
sS'1dQiuUvvK8427TBmqj_4Vg'
p4683
I4688
sS'KXX_KFF_TS2cKrg2_2RfSA'
p4684
I4689
sS'Y1k3ofmktp644vah_TTs3g'
p4685
I4200
sS'Vp5DzIiP_MmaMZMZVFFltA'
p4686
I4691
sS'5Mk754BCQFmpKwlfqSmqzQ'
p4687
I4692
sS'2agcfynFfeeb3s0P60lwig'
p4688
I4694
sS'mSmR8zS7lmUy6gtEAXMKiQ'
p4689
I4697
sS'kaqlSjOjI8YW7PcLdanK-w'
p4690
I3949
sS'BbBzub67X5sAHHTEtk2GAA'
p4691
I1753
sS'0nOIH8qIMnmZdLCTemnRsw'
p4692
I4700
sS'eFPVAJp3jICBEjchM5yiPg'
p4693
I4701
sS'nD60twHjxkBw4rqoUOk8xg'
p4694
I2117
sS'utRlrauZEOF_2kASsIoJ7A'
p4695
I967
sS'xmSfcGW8W4N-m3YvxinHag'
p4696
I4705
sS'GIylP21d010TmTUA2jBOjQ'
p4697
I4706
sS'CfX4sTIFFNaRchNswqhVfg'
p4698
I4707
sS'QGtuYyH2w_R1r-X5BGmgzw'
p4699
I4708
sS'97YdD8tkMkUSvGUw6_u4GQ'
p4700
I182
sS'balhXuT7Pa2Sqb3cuTkDRA'
p4701
I1927
sS'IBZMvu2dTKy-j23qCJgVWQ'
p4702
I3813
sS'VDx8d5mXtyuOKmgKouL8Ng'
p4703
I4712
sS'mTcP_4sV434OoVWwUv_Z6A'
p4704
I4713
sS'z9B25fKtfrxzUws_OOHJSQ'
p4705
I4714
sS'lIKxkRbwzM9UvnF8eTr1ow'
p4706
I2478
sS'_eJ9pXiPKoObEWpI2MmlqA'
p4707
I4717
sS'HQTuvMrM4_MIWU1PSoKPDA'
p4708
I4718
sS'UE-rXhA8njNnADFkDA3EuA'
p4709
I4719
sS'oi3dlNnl3CXRx8JkJCGmFA'
p4710
I4720
sS'igaoaFNkX7ieMuyUBg0u5w'
p4711
I2976
sS'5PMiSCo8nXgf6VB1meCIGQ'
p4712
I4721
sS'mr52dL8Vw8tcTrfB23ykKg'
p4713
I4722
sS'vPOkQJKahhR13LQ2ElSFGg'
p4714
I4723
sS'XIkPvspzRAoEp7McGt9rdw'
p4715
I4724
sS'PABIXXEx_6ykhF7I6_Fu-A'
p4716
I1222
sS'mzPz09EkyK0vQiWt8Xmu7Q'
p4717
I4079
sS'jqd5z_rGg_8qSs7DJPjZYA'
p4718
I1278
sS'722_fCJ6HiUcidSi2nGkZA'
p4719
I4728
sS'K7B3tFqLFbG8DSK7yLjCpQ'
p4720
I2525
sS'pFRE2mNCQvx9DUU542c6Dw'
p4721
I4731
sS'DGszSnRNWoAOtD8WGf9wpg'
p4722
I4209
sS'6ObFF8-uKnOAlXuSH4TlyQ'
p4723
I4733
sS'9lXgNWJQbGO6Qpj_ZCBnkg'
p4724
I4734
sS'2T1zzzZnLajKsgB5AaSq4w'
p4725
I4735
sS'Gfxb_D1k8tueAoGn4cseoA'
p4726
I4736
sS'Gg3K7jsyWEl6TlGmhodODg'
p4727
I4737
sS'BelCqypSxv-45Cosc6ZINw'
p4728
I4738
sS'9P8-9EUP-aEnuisqUYt5jQ'
p4729
I1878
sS'_Y3Zp3WbMgAzB23L4LX4rA'
p4730
I4739
sS'VlVx6clfF7iZfO_idvuMfA'
p4731
I4740
sS'uHZr3XbjKvRTwdXLXrFuvg'
p4732
I4741
sS'IFtbvwIpjbbl5fE6sbf0dQ'
p4733
I4742
sS'VfAfrBGohcjD_CRCwuKz6Q'
p4734
I4744
sS'X8XtoFBoAiHrw3rZ4v8cRQ'
p4735
I4745
sS'YfwBiRftj-mMTW5XZBNFmw'
p4736
I4746
sS'3CVT71cTx_fLbLr9JFr-Cw'
p4737
I4747
sS'aD-rsDe2S0e7jTkYD6ULaQ'
p4738
I2954
sS'6luPKWgdtLehNwFVzPMLTA'
p4739
I2803
sS'TAZ2UvEzXXbieQMCWn8qhw'
p4740
I4750
sS'6xkY3nZJMYeNpyBvKoFloQ'
p4741
I2629
sS'TxHx1fb8O_MsfQB_ODdTQg'
p4742
I4668
sS'ksIu2cbYaSuA1loF0eCMpg'
p4743
I2642
sS'bh9izcnhZixZjju_cggv4A'
p4744
I4754
sS'hcZqq-a16ZTjaM2p2MljTg'
p4745
I4755
sS'd6fQOiuzx4gymcCr3mHarQ'
p4746
I970
sS'DpiMuxg2g4urzClzjykUHg'
p4747
I4757
sS'3gE3_MDUsCg-Tay4t1R5nA'
p4748
I4758
sS'7CFAV81EMsh6SjiRi07bzA'
p4749
I2486
sS'JnGjZVSlfCkKHErvO5ts4g'
p4750
I751
sS'J2j0PBxPAXU5i7M0rrgfGg'
p4751
I4761
sS'bVthsfeUU3Bd5AeJLqKT-w'
p4752
I2691
sS'SDNOcTf_iepqRywwG2EqEQ'
p4753
I4763
sS'FDQpUh4pC3PAP9rfRuaXmQ'
p4754
I375
sS'_BcWyKQL16ndpBdggh2kNA'
p4755
I4765
sS'GFgoqj9-NqGAMfeR9pJNCg'
p4756
I2705
sS'GSsQ_AybkmJvT-PDh1Fchg'
p4757
I4767
sS'mswloq-IjRr9yXLhBqBPAw'
p4758
I4768
sS'yrWJ4YZWvFj_NDOvTRaAqA'
p4759
I5110
sS't3cu9DxXtGyaPIWNvPOXxA'
p4760
I4770
sS'ZkvNrG9KpTjVqzsjoLhnbg'
p4761
I4772
sS'ZJlNrE2Z_i_-6IKeciRO7g'
p4762
I4693
sS'LkXNQQaIc5yrKu9Ap87RrA'
p4763
I1152
sS'I9QgNF3DsgZg0xjWsIb9gg'
p4764
I4217
sS'J7ka23aCUNK-v_yLB4AL1Q'
p4765
I1813
sS'We9qK9M-oI6LUULbQo_InQ'
p4766
I4777
sS'a21yEFhTXEJImb9hGl0JyQ'
p4767
I4778
sS'gScmsSCqBeFPp6q9yG5nmw'
p4768
I2762
sS'liymdX-2oYY7jy4py09Vog'
p4769
I4780
sS'Fr_rLfBcfvVVXkLTanrkvA'
p4770
I1620
sS'Mm4xfYGnGcDLWIt32C59ag'
p4771
I4782
sS'jqIsXz-GX9wFKmJih2oNbQ'
p4772
I4783
sS'K_yjrrDZBSic30Gr-dopqA'
p4773
I4784
sS'EEWaEdr10jCtAwyK0U8_dw'
p4774
I4785
sS'RiRBxp0Le1tdV27AH21RFA'
p4775
I1768
sS'FC1ZSB9fd4WlDMSAbEjq8Q'
p4776
I4933
sS'ov9G-Mn1XGFp6m8sFEmEng'
p4777
I3594
sS'7KVpIdVSWCzI5F7TGxQawA'
p4778
I3865
sS'0x7s5SZLY19HY_9q2o0wTw'
p4779
I4922
sS'RTf8APWVR5HW6Ej5qJRX9Q'
p4780
I1513
sS'zIfzrljT0hEyrndvxXVdFQ'
p4781
I4790
sS'IlXKZEow7HHVmHcdP-1QTQ'
p4782
I4791
sS'XYSDrIef7g4Gmp3lNFVO6A'
p4783
I5124
sS'Hm0diOkWwpo9zotlJlqMUQ'
p4784
I2849
sS'mteJOlja359dj7XYQnKzCg'
p4785
I1586
sS'n4yi3tSNQ9eyQSSfFszRgQ'
p4786
I4794
sS'l-fe24FmqxPW1i0Jaii3ZA'
p4787
I1919
sS'4_mUWwbwbYMyVgqVm6taFg'
p4788
I3724
sS'gjhzKWsqCIrpEd9pevbKZw'
p4789
I4798
sS'9G8EyOAEv5mfSOdsbrIF7A'
p4790
I3325
sS'wuYqjkBHfsw3sq-M9elEpQ'
p4791
I1037
sS'j_orXueAYJBft-VUNbs1IA'
p4792
I4696
sS'CFik5DmL_c2gQ9BXnM38vQ'
p4793
I4803
sS'2-aqblo3d6iBBKgrbqdC0A'
p4794
I4804
sS'aG6Q_IKp5qLu0uV7LHaR_A'
p4795
I4805
sS'_WDhO6yeZQoVo5agXH3Tbw'
p4796
I160
sS'lDUgz8qhkh9peCbxwEOUWA'
p4797
I4807
sS'bl2JJL3Yxc5OVdHSJeoohA'
p4798
I4808
sS'hSD2Lu8Z_62klnMDND5sSg'
p4799
I5054
sS'lmJy4OwP_TyHIg8a8Q0RsA'
p4800
I4809
sS'0GHsxjCk-Ynzx4Ihj8tjPQ'
p4801
I966
sS'McnAn0w_Fff4ikbWJXIVww'
p4802
I4811
sS's85ov2JmELYoW2lwwmkVUg'
p4803
I4812
sS'NXw0bCLF5ZtFMfhcj7CFSw'
p4804
I2806
sS'4UQfst9jve4GCSfWpWn2uA'
p4805
I4814
sS'jhxvG-f2ucqI3jADzS1ONA'
p4806
I4815
sS'ulRN85lvP4Jq3lTvuu1mqw'
p4807
I3846
sS'0tvCcnfJnSs55iB6mqPk3w'
p4808
I2994
sS'1y2dLZg2l3dtLc1nzU2qzg'
p4809
I2492
sS'irkRHMqg9oSt7lv3OSiNkA'
p4810
I3420
sS'Xeiog4urs3gv8lj06Eh9mg'
p4811
I4821
sS'QBIRZxIPTs17Z2SyVfp9_g'
p4812
I4822
sS'H4EQn0rjFuGRgIm6c9NFLg'
p4813
I4823
sS'uTDxT-lAVI31gBg9Fgz8hQ'
p4814
I4824
sS'gwIqbXEXijQNgdESVc07hg'
p4815
I3476
sS'eIa4QJXp5ZNmuFORnuPvDA'
p4816
I4827
sS'U-blmCm_qUbibUUgqDSB_g'
p4817
I4828
sS'baD0m5hJdUYEqmJaV3uMdQ'
p4818
I3806
sS'1UKab-nmvbBoyp6y6f052A'
p4819
I4830
sS'zoyb93pskMhDgXZgv-DKtA'
p4820
I1449
sS'2Yg3D3xUNNzmn-SicXZOnA'
p4821
I3020
sS'RZLEy3x76eTtlYpi8De7zw'
p4822
I4833
sS'hKAelF9K5XSL9bjQO7PpIw'
p4823
I4834
sS'wkklbFK50TTkd1GJXXAntA'
p4824
I3118
sS'lpKD0hwlYUCi8kmXrKYKGQ'
p4825
I4836
sS'X1Jfcylqrh-B-IaphsP7IA'
p4826
I4837
sS'Bp-TQEtc6Vs6ldnLgjqglg'
p4827
I2999
sS'eu19K9KfnvvubzWuv4l6Wg'
p4828
I4839
sS'-kO6984fXByyZm3_6z2JYg'
p4829
I4840
sS'j9Z1dcoZrwn8Ul9JTnjjug'
p4830
I4841
sS'YYLDPgetN_4NoPW_tWlkYg'
p4831
I4842
sS'JiUmz7l4rNz4-YmOj13i9g'
p4832
I4843
sS'OLswYLnI8GVgeeRuXLc-Fw'
p4833
I4844
sS'-A8NWVsLSAQX_XTqt4WPmg'
p4834
I4944
sS'UIWJCFESf9r9eiw0jV-xjw'
p4835
I4845
sS'W8MlgzACF88yMeWNxQNiRw'
p4836
I46
sS'qUUMmANmVRuQxagzH8irhA'
p4837
I4847
sS'SPd9BW6ck4vyoYm2rLD3-g'
p4838
I4848
sS'9IF2ZMnkrZlvxCHcO0h1EQ'
p4839
I4849
sS'UYcmGbelzRa0Q6JqzLoguw'
p4840
I4729
sS'JwngfNrDD3hCWKStBOACRA'
p4841
I4851
sS'0GNzUcrdgVkGrt0MqjMLJw'
p4842
I3180
sS'oOoJ1-FcGHfwmvjmQrJp3w'
p4843
I4853
sS'vWZbYMFteqB85HlMCA5GMw'
p4844
I4607
sS'tDAnoZ_XBZPVVP-JiWer0A'
p4845
I4855
sS'HOUwuQvxN6vq6j15y4aZRg'
p4846
I4856
sS'CwBh8Fmr07jFYBKZ2p6Mqg'
p4847
I2604
sS'FBelk4JGoO0ZCFlfJzW3aQ'
p4848
I4858
sS'YWEXjQEs7abyX_Fo6-mxQA'
p4849
I2620
sS'ptLIFLUPwg3MYt-J62s3iA'
p4850
I4860
sS'aIupIvnPUe3ressaYe704Q'
p4851
I1542
sS'cBFgmOCBdhYa0xoFEAzp_g'
p4852
I4862
sS'KxGeqg5ccByhaZfQRI4Nnw'
p4853
I4788
sS'vTugBdYg34rX4KvGpzBrNA'
p4854
I1761
sS'H5EY1CeIx4m_pNChKZkq7A'
p4855
I4838
sS'iBvTgMpdb3ki6APv0pS1og'
p4856
I4062
sS'06gL9VaAyAl6WoYVu_nPuA'
p4857
I2812
sS'Ix5V2ZXa5V210Hs2zddbHA'
p4858
I915
sS'xkmypny5H5-kFJR2LfbRcw'
p4859
I2394
sS'HsTEfv2QiJBI1VclnVsxnQ'
p4860
I4870
sS'UsmTxWbobLsI6WR1Db0W7A'
p4861
I4871
sS'Q0qo1Gi99LihNjitnpfCAw'
p4862
I4872
sS'sIz02nAyQIrDtFavxZtfTQ'
p4863
I4873
sS'ImVfDOri1NG5UE5MEmqHJg'
p4864
I4874
sS'Qa2NoSc6DphQArihBgY9Gg'
p4865
I1993
sS'pnfVIB7UhvCQ7X2K0Q2XIw'
p4866
I632
sS'lCXKbSVJYJpUVpZlG4FZIg'
p4867
I3337
sS'8Zocr6jVED5JQEBvqwEBZw'
p4868
I4878
sS'k6HN0FE8NC8vV1sZuu0O4g'
p4869
I4511
sS'bJcvEmFZyWIx_x2VBPtGHQ'
p4870
I4879
sS'ucjiayTcI7l4HCAj2UJFTg'
p4871
I3809
sS'nffEoRhzQYVIL3Y6bFhcGA'
p4872
I3340
sS'CyAl5D-GjX-ZtqdQqG4_ew'
p4873
I5128
sS'rKkpHJkJ27xOwnhy_bMkvA'
p4874
I1668
sS'ab3reFeopcOWWDWcnFn2Rg'
p4875
I3804
sS'AjBWVjeMOmvfd-iZCgAtJw'
p4876
I4884
sS'Tz_OgtimAKIShlRgNien3Q'
p4877
I4885
sS'fwSsSQXLvip6MkayAa_vyQ'
p4878
I663
sS'1h1DD2hgfgud7V4NCE9mVg'
p4879
I4887
sS'70WzR6h6CrGVx5Oc6jpsfw'
p4880
I3380
sS'augJQotyLB503iq1gVJ_tg'
p4881
I4604
sS'sJkKPKKpKiqVP-UVM3tBWg'
p4882
I3304
sS'bzMzZE3OCqHhZyXH5JRaWw'
p4883
I4891
sS'Ud6j2HN40qEhycq2PuwcBA'
p4884
I4495
sS'H1x-M7zrDWbtnSAW6ZZznQ'
p4885
I2888
sS'j6Kv_wLQzZMWobLIyijX3A'
p4886
I4893
sS'cufhYFdyrUAt4SWe-m0grQ'
p4887
I4894
sS'jhPAC7UyPiRFNPlNQYMMXg'
p4888
I4895
sS'xAyZ1xeaW9zaB1faQBNroA'
p4889
I4896
sS'gurcmVDESVQ8X20xpw4btw'
p4890
I4897
sS'aIJ-2R1q5G7oqzBSgK_Vvw'
p4891
I2485
sS'aYEqNwqF-YsB9g7lmrAJvQ'
p4892
I838
sS'U1e7IE9A_358yG4pNBjmMw'
p4893
I4900
sS'Lm3fpZjnpvjfyEko4lW0aQ'
p4894
I698
sS't4UQLKHArLbcpWUSWXrFDQ'
p4895
I4902
sS'GX6YV2sORHR7tOma3mcYfw'
p4896
I2850
sS'txzOZrHK9EVY0kYjSuXkKg'
p4897
I4904
sS'1sGYXSkJHPhJ6wQtc-RbZw'
p4898
I870
sS'hVXJ8ag9djpzQqvd6jvNTw'
p4899
I981
sS'Wu-yg4k0EgOeU2xuG6tcyw'
p4900
I4234
sS'EP8rQdAcvfxx2hfXQevpEg'
p4901
I2680
sS'zlqbbhAujrMla0eDiK7mIw'
p4902
I4886
sS'DLYdsGbx6fJfoIxXS0nQsg'
p4903
I2264
sS'7SJqU0pFulbg9JdOSxP5KQ'
p4904
I4911
sS'QIy3iLXjBUBqRzwd2lnWGQ'
p4905
I2716
sS'EVaW-GGDEbYrYhgGUmO0DQ'
p4906
I4027
sS'NbcKaDL1fZeSGj8g5EJR6Q'
p4907
I3968
sS'3R_dB9VQ_D3WPJEw7pmorA'
p4908
I4916
sS'fAfGwjh5A_ydd0A4ZdGenw'
p4909
I4917
sS'FjmgJIvYxt5TTJSToiPn8g'
p4910
I4237
sS'BbMnqO2PlVThs0VgG7sL3Q'
p4911
I4919
sS'E_EB5khTIBNCnWueA3Ex-A'
p4912
I4920
sS'TvRqHTHzTRLry_4u2nafAA'
p4913
I2248
sS'7dwh3pL2tbSeSvL0qLzUrw'
p4914
I4921
sS'd3i582wefTonNg8DB9WKqA'
p4915
I3609
sS'h4CvnY6SMdg_jEuupsp9jQ'
p4916
I4923
sS'VXt9KWKNUMMNkkCzhHVr9Q'
p4917
I4500
sS'9Xec9d55DdOOPw-B6FOcvQ'
p4918
I4925
sS'itw5t-iHS_gB-LjmHwx1MQ'
p4919
I3752
sS'GWOf1oB2mTalRY_A-EjSiQ'
p4920
I1779
sS'LzmC0SDuCp4Tps-k9fc0sQ'
p4921
I4928
sS'53dkR4-xyhjsCVHfrwiGaQ'
p4922
I871
sS'hBicl52tMVsTecdZSVL-lQ'
p4923
I5067
sS'HBMmpOQLhnlxA01id5Nl9A'
p4924
I2314
sS'e'
p4925
I3812
sS'R5boWGx_1R6hfmuqa3KfaA'
p4926
I4934
sS'rQLEfpfSjVK-3dBmIMKZDA'
p4927
I3112
sS'ZjQN1ubCzlpfZL6LZA21Nw'
p4928
I4675
sS'e8ctA42_X95wLlrf09YZQg'
p4929
I4473
sS'AHKSSaeYZ8h4nOXm5tyWzg'
p4930
I3682
sS'RAOZ3SzKlmxY3iDIlBb0dw'
p4931
I4939
sS'K1lkv1Zpnzsl3n08Zv04kg'
p4932
I3696
sS'WrYq_Xs84Q7zm_pbn192Dw'
p4933
I4941
sS'7k5I6nL-4ywRFEjrvr8FBQ'
p4934
I4942
sS'Tvk5HuAzmYDJPN9d6fBiiA'
p4935
I1726
sS'nNlRYWO00FvLVQx9Hp6_dw'
p4936
I3673
sS'WFgBPZe3jlbtTenmmHNIfw'
p4937
I3798
sS'SIT2McFNaq6F9cyBH0ciIw'
p4938
I1268
sS'YeEUeu7W3TM9PjBsGlyktg'
p4939
I3725
sS'3jjiY5D7oIlKeiCIZGHQew'
p4940
I754
sS'RsNJ573zSlcR8SlIPmyMOQ'
p4941
I4949
sS'zDltf7SGyDANcA6ndZkF7A'
p4942
I4950
sS'nswWHjhUtnhuNlPS67HBsg'
p4943
I4951
sS'ylnlAS9bCbxEcPRfxuhJCQ'
p4944
I3589
sS'CtITdFHWadagdOCn0sIJAw'
p4945
I4953
sS'r7_TrVKWdeUiytF2-Bx7Kw'
p4946
I4954
sS'G0FGeAGBj7IUFgCidXaSqg'
p4947
I4935
sS'k49XnUNhwa_jRdhaG4uE6Q'
p4948
I4956
sS'uQY03sjjoHSBGb0bIUR9Vw'
p4949
I4957
sS'0QdwQLVxZpgy9Qb2Qakflw'
p4950
I4958
sS'-VOylYXNq7sG6As966yTxA'
p4951
I4959
sS'XuF3KFLkifmXfBlZhk7jiQ'
p4952
I4960
sS'rYH17FN_7hwLDVR2ERRLlA'
p4953
I4961
sS'ibvH1Y7Rh_tstiWgH0OFTA'
p4954
I4962
sS'jVjuv-C8oMuD6n-MhgsMHg'
p4955
I4704
sS'B3s7gBz3NMFOaNvrzWzLIA'
p4956
I4964
sS'OapLWhQI4_Gm32-nYbHmUA'
p4957
I1470
sS'm4yMNcpfHLAgvJJiXmBKDw'
p4958
I4966
sS'crasIKQMgA3QIoNkQA3C8w'
p4959
I3859
sS'PPuK3vKlgoWlTF2rfvFD8A'
p4960
I4968
sS'F_WfNGoYHAHDQy2abIYoNg'
p4961
I709
sS'fMAs6bC065w3jr8Tr_0kgA'
p4962
I4970
sS'd53XPbuax-aS7MuH29zIGQ'
p4963
I4090
sS'HToqdBghDzj5TdfqXuE1Rw'
p4964
I3892
sS'bGP_-xTv77BTsUEwK9tSEw'
p4965
I4972
sS'zQTEbn5nWGPypxOf2uRPmg'
p4966
I4973
sS'NdEoQxmAig_vp7ZYPMhAXw'
p4967
I1953
sS'gMuoaaZZ2BsBiXuVCHh5zg'
p4968
I4484
sS'HLhA0dL8xHz9HgvAs7HWSw'
p4969
I4504
sS'PgrCdD3iPgYzXxO8QsMnew'
p4970
I3927
sS'Lu8y2ayxVlAzuJEVfVcH4w'
p4971
I5169
sS'JnPIjvC0cmooNDfsa9BmXg'
p4972
I4976
sS'R_S07piLpe_LHU0yKyYOzg'
p4973
I4977
sS'jwtTBTYuL8249q26lmJH6A'
p4974
I3355
sS'vXrUBAIN4aoCt7F5p0kU_g'
p4975
I4979
sS'UuAk4jHFBCHlgiAFJfubQw'
p4976
I4980
sS'amU2dHcyKLsbjKj3mGyaBQ'
p4977
I3693
sS'kofiqkPOeo1loQHsVbxQXg'
p4978
I3855
sS'WMS7LyRSINc1moEgDYDo1g'
p4979
I2889
sS'K9ejqgRQsGQOuM43hKtN8Q'
p4980
I750
sS'fitXjNnwVB_HzqaBSrIGXQ'
p4981
I4684
sS'5Tc0YXgYDvTTlps0e8xTNg'
p4982
I3998
sS'r3Gw9EjLT6BT9xD9evpwEw'
p4983
I4247
sS'qOODN0RsLbNQaLPN3srixQ'
p4984
I4988
sS'TjH9gxY2jYIVrY-zlplIcA'
p4985
I4989
sS'IDhcaHM7KG4EDmWf9b3c0A'
p4986
I4990
sS'X8EaFdIcMn3hYdlH0hJQ7w'
p4987
I4991
sS'2l0O1EI1m0yWjFo2zSt71w'
p4988
I4198
sS'eLWbqP7SVV23ZX2EUAG-hg'
p4989
I4356
sS'hwSSM8Jn29dXRW4ym-roDQ'
p4990
I879
sS'XJLZ9xMbNIOc1W-WbVvVwQ'
p4991
I4994
sS'r34WTuxQ8H5I-eWR6bl3Tw'
p4992
I4239
sS'9lU5zOPluc6Y8JZUL9nzsQ'
p4993
I3091
sS'XYWjjklyITIAEBgnZtU-Mw'
p4994
I9
sS'WR6033peFiviFPzAV0yhJg'
p4995
I4998
sS'-PoCbyNa4xc4yvReuj5pqw'
p4996
I4999
sS'YWWDhFvemd93HKof8D-QoA'
p4997
I2720
sS'hYWwocw-J4KdyGLrUlOYXA'
p4998
I1311
sS'ow6wOP888_nHHGPjys22mA'
p4999
I3149
sS'6ivd2u_gj1f42Ep5WKue4Q'
p5000
I4113
sS'beiyxvcseNT2L_q53DDtTA'
p5001
I5004
sS'jwbcs_eQ2QznrOyMuqz1LQ'
p5002
I5005
sS'gsGfJwZarPg3usmPiT_clg'
p5003
I5006
sS'4m9NXICYBC5i9t4aTt-I6w'
p5004
I5007
sS'a_TVmbLLYVk91lNlReDP1Q'
p5005
I5008
sS'3xORNxbKdd08LUf0tclx3A'
p5006
I2417
sS'C5QsUsQg5I3dMdLM02SXGA'
p5007
I4137
sS'NJOspTE_Ms-b8ACPKY73Ww'
p5008
I5011
sS'Io0b0zFMWcW5lpUtTxQ8BA'
p5009
I5012
sS'DtDr1jb1gYCwJJWfiGdWAw'
p5010
I5013
sS'y1PFtSTmU0YFqeXfXcLqdw'
p5011
I5014
sS'bN25cOkFDluT1NjMNkWqAQ'
p5012
I4157
sS'8ExCZVowOo3LK2QG6G8Xmg'
p5013
I1818
sS'VH7nJ2DdP5onNpSUWy0lRw'
p5014
I4725
sS'lUPSEbFRd3jDOM5agGnjWQ'
p5015
I5018
sS'Eo4iEYfKEyKVoNOzJdY2Rw'
p5016
I5019
sS'-Vu7L3U7-kxDyY1VHxw3zw'
p5017
I4183
sS'1ArdBetF-pM3Y4eP1pgNPA'
p5018
I4971
sS'_nTKLtY-W7Adf9gasN4thQ'
p5019
I5022
sS'V5Th21KjUiYLJQyV-vGtpg'
p5020
I5023
sS'iuRpRASIRqFaDd_B_IEDbQ'
p5021
I345
sS'y975lu1oBjpW47TT1QdFHQ'
p5022
I5025
sS'b_Z2vamgc15EzlHeW9t6yA'
p5023
I1655
sS'iQItzYZvnHM2DTGkweLTow'
p5024
I5027
sS'92rtlWxS2aOngzkKhi-OxQ'
p5025
I5028
sS'D63tbQkggXGHQB-4t6B3lA'
p5026
I5029
sS'ONqYv2Re2sLPdspqjsHfsg'
p5027
I1455
sS'Zt1Zs23ifbxTCDhvH46pBA'
p5028
I5031
sS'R12GCq7XczBpP99KzenLAQ'
p5029
I917
sS'nmdkHL2JKFx55T3nq5VziA'
p5030
I5033
sS'TIrOT3y33xydiOnNSqDvOA'
p5031
I2241
sS'5U00_nY0k6WjJAGBi9hDlA'
p5032
I5035
sS'ofxHyCsg2YBaC47SofI8Zw'
p5033
I5036
sS'g_6QIWOCYV3fHWeC2rRPmw'
p5034
I5037
sS'8rph_A-q3xw-jLl4Q3w4Xg'
p5035
I5038
sS'8qt5ruOV2T7VFtjWGXe43g'
p5036
I5039
sS'FarlUOxHOJ1NRMg9FwLAdQ'
p5037
I1685
sS'-FZBTkAZEXoP7CYvRV2ZwQ'
p5038
I5041
sS'P9hbcVoZIPKF4gV8KH427A'
p5039
I5042
sS'1hCqFYc0oNpw7aZZBuEh6A'
p5040
I5043
sS'Zij_7wpB3EjmKj8-9BuKMg'
p5041
I5044
sS'jVaiCNmWOjoI0led5LZuyA'
p5042
I5156
sS'Ah4eKpJjMho3PMA0PQu_jQ'
p5043
I5046
sS'5BpJEC8YVi80ecWT5CtlfQ'
p5044
I4365
sS'HO35wso-psqx0GF--QSwGA'
p5045
I4371
sS'ooBKO0v4P-hLDn1Yg607Xg'
p5046
I5049
sS'HRXCDZeC7_a5rOCnwTftWg'
p5047
I5157
sS'syvwUKQJ4OYfmL_ixVLMeQ'
p5048
I5050
sS'DKmUukETiMVidu548TE-zw'
p5049
I5051
sS'fiAtggeGGinY6UnHI75NcQ'
p5050
I5052
sS'h8pthOnqCxV94D8-JkZXCQ'
p5051
I918
sS'rGyxhmfO0lvOHswUndr0xQ'
p5052
I286
sS'qIJNQ5dyC6g6iIPIUGyVxA'
p5053
I5055
sS'0VYzR15p6G18-2_KCsvuEw'
p5054
I1853
sS'3JE48zh05T-NNRTDGKrbpw'
p5055
I4825
sS'AT6NwNkLKxgW2fsQGNs-gA'
p5056
I5058
sS'YOIorhfo8hHhilRyam2c4w'
p5057
I5059
sS'ADdBQh0FxmaMy78WoSbkuA'
p5058
I5060
sS'I-02Mz45H7siHsjjgVxPgQ'
p5059
I5061
sS'N1i_mxSbDmhcUQ73Cj2lWA'
p5060
I4467
sS'1PJ-RjMqXHeymSkLRzuIdA'
p5061
I5063
sS'e_YQl5LBR7Gdrp_1vdj1yQ'
p5062
I316
sS'ctdXAxhkrJNyA2WW5xXBsg'
p5063
I3557
sS'JgSMZ6MUZGf38cSBajknww'
p5064
I183
sS'oSz_0CbZ78LgxtcipghWEQ'
p5065
I3108
sS'kZJWAY828P8QZTqVYzhTCg'
p5066
I5068
sS'WnzRueYdRWNSbkXB0_0i4Q'
p5067
I4421
sS'HzEtbh5KYzfeW_MTVnGCEA'
p5068
I4185
sS'PvBmRN4suldo06Kcz2-vcw'
p5069
I5071
sS'q5aG7pkJdHjb5O9YjgupSA'
p5070
I828
sS'Up9Q-R5MDFaD2K_t5FEpQQ'
p5071
I2826
sS'VmlShd8k2tq7-O4TVx5R1Q'
p5072
I4743
sS'O1JFjkzIDeAMVAhehDb-MQ'
p5073
I5075
sS'HH7iiWvBqV-20lA7JlSRWQ'
p5074
I2097
sS'DtajKETYfOtSsKJCD33SOw'
p5075
I2789
sS'flW086sAjtHDab-5XJxKoQ'
p5076
I5078
sS'KVJMmL0YhWwZRUhhMNkpjA'
p5077
I2746
sS'_iSS1m_QBY9E1f1xOZovlg'
p5078
I3168
sS'j'
p5079
I5081
sS'1a60tzkZy_9iruwRZl9nyQ'
p5080
I5082
sS'Dgx185t0xrXT8nboVCNBqA'
p5081
I5168
sS'iJMDvVg6Mgl43is4XxIKsA'
p5082
I5083
sS'EqZRpkpkWf54rwfnq5MUsw'
p5083
I5084
sS'gjfcfzrYZ0O1xINHtnQKiA'
p5084
I5085
sS'5T_2RWFzvf-nMZYD0RsvWg'
p5085
I5086
sS'Xxvz5g67eaCr3emnkY5M6w'
p5086
I5087
sS'UH6RCH9K1o2VW3CU8PY5iQ'
p5087
I5088
sS'088SkMN7Hjn2vK2MEUfc3Q'
p5088
I4641
sS'O7ojHP59iSi32uhEDUR44A'
p5089
I5090
sS'_m3SyztWE_ji0wLxsL2Ycg'
p5090
I5091
sS'xyqnCAQsARyayfkl0dSNKg'
p5091
I4592
sS'nT9hrb0nJ0CIox17zsyd9w'
p5092
I2817
sS'oeAhRa8yFa9jtrhaHnOyxQ'
p5093
I5093
sS'wrhOaPospStRs5q15ot4bA'
p5094
I3184
sS'B8WruADju0mx5FlkLfYYfw'
p5095
I3371
sS'ycVIThPWpZa2TfTlonf4fQ'
p5096
I5096
sS'qewG3X2O4X6JKskxyyqFwQ'
p5097
I5097
sS'Et6mwzOORak5K6kJ-yw4Xw'
p5098
I552
sS'M271Ac7UKVaQ9U5AOvc_9A'
p5099
I5099
sS'wce0tudXf9BCeWhQRr0TiA'
p5100
I5100
sS'rgJxEl4WupEqwhN0z5yBcA'
p5101
I5101
sS'jkiinjUy8RUZKzW5gBpXNg'
p5102
I5102
sS'DNmeLov3wXNxlxjN5feBoQ'
p5103
I5103
sS'W3o61WWDdvFXc0LURM1L7g'
p5104
I5104
sS'rm7jG8S4PpyqMZ9TSQNZEg'
p5105
I5105
sS'iQXwoe-qxXCSntplW0i81Q'
p5106
I5106
sS'yT_QCcnq-QGipWWuzIpvtw'
p5107
I1790
sS'l-zgWG-brcQ4iRev-pfrsg'
p5108
I5108
sS'QnRE07Ny1YytWBh2na4gNQ'
p5109
I5109
sS'BCy-Hut597GtNvlnx3pB4Q'
p5110
I4769
sS'SDURW9xVesI7-Yl9naeEog'
p5111
I4715
sS'VTiNEflp815ycyHv4cMaiQ'
p5112
I5112
sS'46Wi08T5D3phf3SMgi7U3w'
p5113
I4283
sS'ZIOCmdFaMIF56FR-nWr_2A'
p5114
I4268
sS'VUk3lcb1RzT5QrM6sXtfyw'
p5115
I5114
sS'5ju4tmqmdYS3QquclUxIkg'
p5116
I5171
sS'qblz4CzxHaubFqf-xBeZIw'
p5117
I3817
sS'k7nGWn4eZatQtEeVdqSgoA'
p5118
I5117
sS'Xozr1-vOeyUddwUEJWgIaw'
p5119
I411
sS'GRh1cG-w44ALvVl0CpMw1w'
p5120
I5119
sS'ZsUSGU1-L1ImomLZjXxxTg'
p5121
I5120
sS'7wQxPZXiuGakCOz4xgKpPQ'
p5122
I3376
sS'Rdtp3Yam3moqnGIG3td3wA'
p5123
I5122
sS'Bf87HcPERF9yiSjb2tQBqw'
p5124
I4913
sS'LMoK9BUP6Tgfc0AeDVbZHQ'
p5125
I4060
sS'ae7zi8F0B6l_JCITh1mXDg'
p5126
I3776
sS'YpQeAaEP0iIhXcg3ZW7vBA'
p5127
I2112
sS'zxF7vwh32ccSN3CbCMlalw'
p5128
I3377
sS'41kMyI1BfOTyIIAenUSaTQ'
p5129
I4882
sS'_D25AL2bbVQNOJLOrdk0uQ'
p5130
I2070
sS'-Uch0Ftb3uw09Vkm1PBeog'
p5131
I5130
sS'1yv6GXttiII_-od7HaUcfA'
p5132
I5131
sS'lJix8dFRFk4WvVpdRTyC0g'
p5133
I3793
sS'PcvbBOCOcs6_suRDH7TSTg'
p5134
I5077
sS'qibGLHABNReGeJr2w4_8yQ'
p5135
I5134
sS'5gz8szYeYntJMCBtReC8gA'
p5136
I2742
sS'CUqNeiOX2QDPu505iqPZvg'
p5137
I5137
sS'nKVklvB7yZ56dc_8bnLpfA'
p5138
I5138
sS'kYVpQrlb7l3D5jTPPKduLA'
p5139
I5139
sS'q5R39EeDXWg32KghCsmBmg'
p5140
I1015
sS'CIZGlEw-Bp0rmkP8M6yQ9Q'
p5141
I5141
sS'cSNER_qF_bb1t7kN0kZ44Q'
p5142
I4220
sS'rXvsM4vsvrhmLKXu10HRbQ'
p5143
I5176
sS'Uke3Ob09vZgndCZ1ulHsdw'
p5144
I5143
sS'cK5sF7hIbwgDIikFL-RX4w'
p5145
I4930
sS'1eOJSCb2aDQakloIzVqiYg'
p5146
I5145
sS'3GxGGcfabW2GeDyBQkQx4w'
p5147
I5146
sS'mlXIzLHZ2RAw3MMzpBsFlA'
p5148
I5147
sS'Thc2zV-K-KLcvJn3fMPdqQ'
p5149
I5148
sS'x9rkVoNB92HR_bFOe6MFTQ'
p5150
I5149
sS'CXNXQFCkpJYQdY3qLSXYhQ'
p5151
I1488
sS'iQbqQwF6ttvdMbpbqEGIaQ'
p5152
I840
sS'JITevzyEgskIJc6sgOyEgw'
p5153
I5152
sS'N9hqTPQu2bmI8c2Pj8F1ww'
p5154
I199
sS'qIECCqeEZQXre0mYvZU_pA'
p5155
I104
sS'FVXLwworadK1v77iaNVQ3A'
p5156
I5155
sS'pKSVqOWpyVc3dwGogNhphg'
p5157
I5045
sS'niTdjI2tBGiZJLhNWtyqdw'
p5158
I4591
sS'mxBmOz00l-6CBebMg5G91g'
p5159
I4275
sS'WrHCEpls59Uu4XNXNaK7fw'
p5160
I5159
sS'Hj_GF8MnikDy4BQzf0B8Dg'
p5161
I2591
sS'BOU25_BWQnLdFJBKUe2XdQ'
p5162
I1014
sS'7gDAcB7S_kHZUivuibjdVg'
p5163
I5162
sS'C2uPDBzST_e1RBLDmgRtWg'
p5164
I1857
sS'd4iRRJUcK135rjax3DJoSw'
p5165
I2614
sS'nPkTidQvXdVPZH7dgDWarw'
p5166
I5165
sS'N3oNEwh0qgPqPP3Em6wJXw'
p5167
I3842
sS'8Kjf1ulh1ox5RiO42UI4IQ'
p5168
I3242
sS'uIZWBUF9ovbXWG2dVJ6Zfw'
p5169
I3517
sS'Ht8iGitRu8kynEubcIhsTQ'
p5170
I779
sS'tergDCzIUaILntLpGrR0Sw'
p5171
I2808
sS'kNL4SpfIdMC8GywGayDEOw'
p5172
I5115
sS'NsqDhj79N8x5NamFCRLAsA'
p5173
I5172
sS'rlDDkE6G-nMO-z0hNqekzA'
p5174
I4800
sS'1zyE713RTVjBoO55_XjZiA'
p5175
I5174
sS'VdfSQS61HbfxpKEM9zaBdQ'
p5176
I5175
sS'HYQoxBC1y1DGPq6pGP09Tw'
p5177
I1502
sS'fM_UsuFAYu2TVUqJiYAKsg'
p5178
I2711
sS'ajxohdcsKhRGFlEvHZDyTw'
p5179
I5178
sS'Y3QU8Jj3lYuVa2LmunvnRg'
p5180
I5179
sS'IGhepIyCDPaZkNonWvceLA'
p5181
I5180
sS'2fN8mN7uUjOw-QqtcgYqXQ'
p5182
I3796
sS'Rkvj9noHJqsMVkbPOoL2Ww'
p5183
I3389
s.