(dp0
I0
I0
sI1
I0
sI2
I0
sI3
I0
sI4
I0
sI5
I0
sI6
I0
sI7
I0
sI8
I1
sI9
I0
sI10
I0
sI11
I0
sI12
I0
sI13
I0
sI14
I1
sI15
I0
sI16
I1
sI17
I0
sI18
I0
sI19
I0
sI20
I1
sI21
I1
sI22
I0
sI23
I0
sI24
I0
sI25
I0
sI26
I0
sI27
I0
sI28
I0
sI29
I0
sI30
I0
sI31
I1
sI32
I1
sI33
I0
sI34
I0
sI35
I0
sI36
I0
sI37
I0
sI38
I0
sI39
I0
sI40
I1
sI41
I1
sI42
I0
sI43
I0
sI44
I0
sI45
I1
sI46
I1
sI47
I0
sI48
I0
sI49
I1
sI50
I0
sI51
I1
sI52
I0
sI53
I0
sI54
I0
sI55
I0
sI56
I0
sI57
I0
sI58
I1
sI59
I0
sI60
I0
sI61
I0
sI62
I0
sI63
I0
sI64
I1
sI65
I0
sI66
I0
sI67
I0
sI68
I0
sI69
I0
sI70
I0
sI71
I0
sI72
I0
sI73
I1
sI74
I1
sI75
I1
sI76
I0
sI77
I1
sI78
I0
sI79
I0
sI80
I0
sI81
I1
sI82
I0
sI83
I1
sI84
I0
sI85
I0
sI86
I0
sI87
I0
sI88
I0
sI89
I0
sI90
I0
sI91
I1
sI92
I0
sI93
I0
sI94
I0
sI95
I0
sI96
I1
sI97
I0
sI98
I0
sI99
I0
sI100
I0
sI101
I1
sI102
I0
sI103
I1
sI104
I1
sI105
I1
sI106
I1
sI107
I0
sI108
I0
sI109
I0
sI110
I1
sI111
I1
sI112
I0
sI113
I1
sI114
I0
sI115
I0
sI116
I0
sI117
I0
sI118
I0
sI119
I0
sI120
I0
sI121
I0
sI122
I0
sI123
I0
sI124
I0
sI125
I0
sI126
I0
sI127
I1
sI128
I0
sI129
I0
sI130
I0
sI131
I0
sI132
I0
sI133
I0
sI134
I0
sI136
I1
sI137
I0
sI138
I0
sI139
I0
sI140
I0
sI141
I0
sI142
I0
sI143
I1
sI144
I0
sI145
I0
sI146
I0
sI147
I0
sI148
I1
sI149
I0
sI150
I0
sI151
I0
sI152
I0
sI153
I0
sI154
I0
sI155
I0
sI156
I0
sI157
I0
sI158
I1
sI159
I0
sI160
I0
sI161
I1
sI162
I0
sI163
I0
sI164
I1
sI165
I0
sI166
I0
sI167
I0
sI168
I0
sI169
I1
sI170
I0
sI171
I0
sI172
I0
sI173
I1
sI174
I0
sI175
I0
sI176
I0
sI177
I1
sI178
I0
sI179
I0
sI180
I0
sI181
I0
sI182
I0
sI183
I0
sI184
I0
sI185
I0
sI186
I0
sI187
I1
sI188
I0
sI189
I0
sI190
I0
sI191
I0
sI192
I0
sI193
I0
sI194
I0
sI195
I0
sI196
I0
sI197
I0
sI198
I0
sI199
I1
sI200
I0
sI201
I0
sI202
I0
sI203
I0
sI204
I0
sI205
I1
sI206
I1
sI207
I0
sI208
I0
sI209
I0
sI210
I0
sI211
I0
sI212
I1
sI213
I1
sI214
I0
sI215
I0
sI216
I0
sI217
I0
sI218
I0
sI219
I0
sI220
I0
sI221
I0
sI222
I0
sI223
I1
sI224
I0
sI225
I0
sI226
I0
sI227
I1
sI228
I1
sI229
I0
sI230
I0
sI231
I0
sI232
I0
sI233
I0
sI234
I0
sI235
I0
sI236
I0
sI237
I1
sI238
I0
sI239
I0
sI240
I0
sI241
I1
sI242
I0
sI243
I0
sI244
I0
sI245
I1
sI246
I0
sI247
I1
sI248
I0
sI249
I0
sI250
I0
sI251
I1
sI252
I0
sI253
I0
sI254
I0
sI255
I0
sI256
I0
sI257
I0
sI258
I0
sI259
I0
sI260
I0
sI261
I0
sI262
I1
sI263
I0
sI264
I0
sI265
I0
sI266
I1
sI267
I1
sI268
I0
sI269
I0
sI270
I0
sI271
I0
sI272
I0
sI273
I0
sI274
I0
sI276
I1
sI277
I0
sI278
I0
sI279
I1
sI280
I0
sI281
I0
sI282
I0
sI283
I0
sI284
I0
sI285
I0
sI286
I0
sI287
I0
sI288
I0
sI289
I0
sI290
I0
sI291
I0
sI292
I0
sI293
I1
sI294
I0
sI295
I0
sI296
I0
sI297
I0
sI298
I1
sI299
I0
sI300
I0
sI301
I0
sI302
I0
sI303
I1
sI304
I0
sI305
I1
sI306
I0
sI307
I0
sI308
I0
sI309
I0
sI310
I0
sI311
I0
sI312
I0
sI313
I0
sI314
I0
sI315
I0
sI316
I0
sI317
I0
sI318
I0
sI319
I0
sI320
I0
sI321
I0
sI322
I0
sI323
I0
sI324
I0
sI325
I0
sI326
I0
sI327
I0
sI328
I0
sI329
I0
sI330
I1
sI331
I0
sI332
I1
sI333
I0
sI334
I0
sI335
I0
sI336
I0
sI337
I1
sI338
I1
sI339
I0
sI340
I0
sI341
I0
sI342
I1
sI343
I0
sI344
I0
sI345
I1
sI346
I1
sI347
I0
sI348
I0
sI349
I0
sI350
I1
sI351
I0
sI352
I0
sI353
I0
sI354
I0
sI355
I0
sI356
I0
sI357
I0
sI358
I0
sI359
I1
sI360
I0
sI361
I1
sI362
I1
sI363
I0
sI364
I1
sI365
I0
sI366
I0
sI367
I0
sI368
I1
sI369
I1
sI370
I0
sI371
I1
sI372
I1
sI373
I0
sI374
I1
sI375
I0
sI376
I0
sI377
I0
sI378
I0
sI379
I1
sI380
I0
sI381
I0
sI382
I0
sI383
I1
sI384
I0
sI386
I0
sI387
I1
sI388
I1
sI389
I0
sI390
I0
sI391
I0
sI392
I1
sI393
I1
sI394
I0
sI395
I1
sI396
I0
sI397
I0
sI398
I0
sI399
I0
sI400
I1
sI401
I0
sI402
I1
sI403
I0
sI404
I0
sI405
I0
sI406
I1
sI407
I1
sI408
I0
sI409
I0
sI410
I0
sI411
I0
sI412
I0
sI413
I1
sI414
I0
sI415
I0
sI416
I0
sI417
I0
sI418
I0
sI419
I0
sI420
I0
sI421
I0
sI422
I0
sI423
I0
sI424
I0
sI425
I0
sI426
I1
sI427
I0
sI428
I0
sI429
I1
sI430
I0
sI431
I0
sI432
I0
sI433
I1
sI434
I1
sI435
I0
sI436
I1
sI437
I0
sI438
I0
sI439
I0
sI440
I0
sI441
I0
sI442
I0
sI443
I0
sI444
I1
sI445
I0
sI446
I0
sI447
I1
sI448
I0
sI449
I0
sI450
I0
sI451
I0
sI452
I0
sI453
I0
sI454
I0
sI455
I1
sI456
I0
sI457
I0
sI458
I0
sI459
I1
sI460
I1
sI461
I0
sI462
I0
sI463
I0
sI464
I0
sI465
I1
sI466
I1
sI467
I0
sI468
I1
sI469
I0
sI470
I0
sI471
I0
sI472
I0
sI473
I1
sI474
I0
sI475
I0
sI476
I0
sI477
I0
sI478
I1
sI479
I0
sI480
I1
sI481
I1
sI482
I0
sI483
I0
sI484
I0
sI485
I0
sI486
I0
sI487
I0
sI488
I0
sI489
I0
sI490
I1
sI491
I0
sI492
I0
sI493
I1
sI494
I0
sI495
I1
sI496
I0
sI497
I0
sI498
I1
sI499
I1
sI500
I0
sI501
I0
sI502
I0
sI503
I1
sI504
I1
sI505
I0
sI506
I1
sI507
I1
sI508
I0
sI509
I0
sI510
I0
sI511
I0
sI512
I0
sI513
I0
sI514
I0
sI515
I0
sI516
I1
sI517
I1
sI519
I0
sI520
I0
sI521
I0
sI522
I0
sI523
I0
sI524
I0
sI525
I1
sI526
I0
sI527
I0
sI528
I0
sI529
I0
sI530
I0
sI531
I0
sI532
I1
sI533
I0
sI534
I0
sI535
I0
sI536
I0
sI537
I0
sI538
I1
sI539
I0
sI540
I0
sI541
I1
sI542
I0
sI543
I0
sI544
I0
sI545
I0
sI546
I1
sI547
I0
sI548
I0
sI549
I0
sI550
I0
sI551
I0
sI552
I0
sI553
I0
sI554
I0
sI555
I0
sI556
I0
sI557
I0
sI558
I0
sI559
I1
sI560
I0
sI561
I1
sI562
I0
sI563
I0
sI564
I0
sI565
I1
sI566
I0
sI567
I1
sI568
I0
sI569
I0
sI570
I0
sI571
I1
sI572
I0
sI573
I1
sI574
I0
sI575
I0
sI576
I1
sI577
I1
sI578
I0
sI580
I0
sI581
I0
sI582
I0
sI583
I1
sI584
I1
sI585
I0
sI586
I0
sI587
I0
sI588
I0
sI589
I1
sI590
I0
sI591
I0
sI592
I0
sI593
I1
sI594
I0
sI595
I0
sI596
I0
sI597
I0
sI598
I0
sI599
I0
sI600
I0
sI601
I0
sI602
I1
sI603
I0
sI604
I0
sI605
I0
sI606
I0
sI607
I1
sI608
I0
sI609
I1
sI610
I0
sI611
I0
sI612
I0
sI613
I1
sI614
I0
sI615
I0
sI616
I0
sI617
I0
sI618
I0
sI620
I0
sI621
I1
sI622
I0
sI623
I0
sI624
I0
sI625
I0
sI626
I0
sI627
I0
sI628
I0
sI629
I1
sI630
I1
sI631
I1
sI632
I0
sI633
I1
sI634
I0
sI635
I0
sI636
I0
sI637
I1
sI638
I0
sI639
I1
sI640
I0
sI641
I0
sI642
I1
sI643
I1
sI644
I1
sI645
I0
sI646
I0
sI647
I0
sI648
I0
sI649
I0
sI650
I0
sI651
I1
sI652
I0
sI653
I0
sI654
I0
sI655
I0
sI656
I0
sI657
I0
sI658
I0
sI659
I0
sI660
I0
sI661
I1
sI662
I1
sI663
I0
sI664
I0
sI665
I0
sI666
I0
sI667
I1
sI668
I0
sI669
I1
sI670
I0
sI671
I0
sI672
I0
sI673
I0
sI674
I0
sI675
I0
sI676
I1
sI677
I0
sI678
I0
sI679
I1
sI680
I0
sI681
I0
sI682
I0
sI683
I0
sI684
I1
sI685
I0
sI686
I0
sI687
I0
sI688
I1
sI689
I0
sI690
I0
sI691
I0
sI692
I0
sI693
I0
sI694
I0
sI695
I0
sI696
I0
sI697
I1
sI698
I0
sI699
I0
sI700
I1
sI701
I0
sI702
I0
sI703
I0
sI704
I0
sI705
I0
sI706
I0
sI707
I0
sI708
I1
sI709
I1
sI710
I0
sI711
I0
sI712
I1
sI713
I0
sI714
I0
sI715
I0
sI716
I0
sI717
I1
sI718
I1
sI719
I0
sI720
I0
sI721
I0
sI722
I0
sI723
I0
sI724
I0
sI725
I0
sI726
I0
sI727
I0
sI728
I0
sI729
I0
sI730
I1
sI731
I0
sI732
I1
sI733
I0
sI734
I0
sI735
I0
sI736
I0
sI737
I0
sI738
I0
sI739
I0
sI740
I0
sI741
I0
sI742
I1
sI743
I0
sI744
I0
sI745
I0
sI746
I0
sI747
I0
sI748
I0
sI749
I1
sI750
I1
sI751
I0
sI752
I0
sI753
I1
sI754
I0
sI755
I0
sI756
I0
sI758
I0
sI759
I0
sI760
I0
sI761
I1
sI762
I0
sI763
I0
sI764
I0
sI765
I0
sI766
I0
sI767
I0
sI768
I0
sI769
I0
sI770
I1
sI771
I1
sI772
I0
sI773
I0
sI774
I0
sI775
I0
sI776
I0
sI777
I1
sI778
I0
sI779
I0
sI780
I0
sI781
I0
sI782
I0
sI783
I0
sI784
I0
sI785
I0
sI786
I0
sI787
I0
sI788
I0
sI789
I0
sI790
I0
sI791
I0
sI792
I0
sI793
I0
sI794
I0
sI795
I0
sI796
I0
sI797
I0
sI798
I1
sI799
I0
sI800
I0
sI801
I0
sI802
I0
sI803
I0
sI804
I0
sI805
I0
sI806
I0
sI807
I1
sI808
I0
sI809
I0
sI810
I1
sI811
I0
sI812
I0
sI813
I0
sI814
I0
sI815
I0
sI816
I0
sI817
I0
sI818
I0
sI819
I1
sI820
I0
sI821
I1
sI822
I0
sI823
I0
sI824
I1
sI825
I0
sI826
I0
sI827
I0
sI828
I1
sI829
I0
sI830
I0
sI831
I0
sI832
I0
sI833
I0
sI834
I1
sI835
I0
sI836
I0
sI837
I0
sI838
I1
sI839
I1
sI840
I0
sI841
I1
sI842
I0
sI843
I0
sI844
I0
sI845
I1
sI846
I0
sI847
I0
sI848
I1
sI849
I1
sI850
I0
sI851
I0
sI852
I0
sI853
I0
sI854
I0
sI856
I1
sI857
I0
sI858
I0
sI859
I0
sI860
I1
sI861
I0
sI862
I0
sI863
I0
sI864
I1
sI865
I0
sI866
I0
sI867
I1
sI868
I0
sI869
I1
sI870
I0
sI871
I0
sI872
I0
sI873
I0
sI874
I0
sI875
I0
sI876
I0
sI877
I1
sI878
I0
sI879
I0
sI880
I0
sI881
I0
sI882
I1
sI883
I0
sI884
I1
sI885
I0
sI886
I1
sI887
I0
sI888
I0
sI889
I0
sI890
I0
sI891
I0
sI892
I0
sI893
I0
sI894
I0
sI895
I1
sI896
I0
sI897
I1
sI898
I0
sI899
I0
sI900
I0
sI901
I0
sI902
I0
sI903
I0
sI904
I0
sI905
I0
sI906
I0
sI907
I1
sI908
I0
sI909
I0
sI910
I1
sI911
I0
sI912
I0
sI913
I0
sI914
I1
sI915
I0
sI916
I0
sI917
I0
sI918
I1
sI919
I1
sI920
I0
sI921
I1
sI922
I0
sI923
I1
sI925
I0
sI926
I1
sI927
I1
sI928
I0
sI929
I0
sI930
I0
sI931
I0
sI932
I0
sI933
I1
sI934
I1
sI935
I0
sI936
I1
sI937
I0
sI938
I0
sI939
I1
sI940
I0
sI941
I0
sI942
I1
sI943
I1
sI944
I0
sI945
I0
sI946
I0
sI947
I0
sI948
I0
sI949
I1
sI950
I1
sI951
I0
sI952
I0
sI953
I1
sI954
I0
sI955
I0
sI956
I0
sI957
I0
sI958
I0
sI959
I0
sI960
I0
sI961
I0
sI962
I0
sI963
I0
sI964
I1
sI965
I0
sI966
I0
sI967
I0
sI968
I1
sI969
I0
sI970
I0
sI971
I0
sI972
I0
sI973
I0
sI974
I0
sI975
I0
sI976
I0
sI977
I0
sI978
I1
sI980
I0
sI981
I1
sI982
I0
sI983
I0
sI984
I0
sI985
I0
sI986
I0
sI987
I0
sI988
I0
sI989
I0
sI990
I0
sI991
I1
sI992
I0
sI993
I1
sI994
I1
sI995
I0
sI996
I0
sI997
I0
sI998
I0
sI999
I1
sI1000
I0
sI1001
I0
sI1002
I0
sI1003
I0
sI1004
I1
sI1005
I1
sI1006
I0
sI1007
I1
sI1008
I1
sI1009
I1
sI1010
I0
sI1011
I0
sI1012
I0
sI1013
I1
sI1014
I0
sI1015
I1
sI1016
I1
sI1017
I0
sI1018
I0
sI1019
I1
sI1020
I0
sI1021
I0
sI1022
I1
sI1023
I0
sI1024
I0
sI1025
I1
sI1026
I0
sI1027
I0
sI1028
I0
sI1029
I0
sI1030
I1
sI1031
I0
sI1032
I0
sI1033
I1
sI1034
I0
sI1035
I0
sI1036
I1
sI1037
I0
sI1038
I0
sI1039
I0
sI1040
I1
sI1041
I1
sI1042
I1
sI1043
I1
sI1044
I0
sI1045
I0
sI1046
I1
sI1047
I0
sI1048
I0
sI1049
I0
sI1050
I0
sI1051
I0
sI1052
I0
sI1053
I1
sI1054
I0
sI1055
I0
sI1056
I0
sI1057
I0
sI1058
I1
sI1059
I0
sI1060
I0
sI1061
I0
sI1062
I0
sI1063
I1
sI1064
I1
sI1065
I0
sI1066
I0
sI1067
I1
sI1068
I1
sI1069
I0
sI1070
I0
sI1071
I0
sI1072
I0
sI1073
I0
sI1074
I1
sI1075
I1
sI1076
I0
sI1077
I0
sI1078
I0
sI1079
I0
sI1080
I0
sI1081
I1
sI1082
I0
sI1083
I0
sI1085
I0
sI1086
I0
sI1087
I0
sI1088
I0
sI1089
I0
sI1090
I0
sI1091
I1
sI1092
I1
sI1093
I0
sI1094
I0
sI1095
I0
sI1096
I0
sI1097
I0
sI1098
I1
sI1099
I0
sI1100
I1
sI1101
I0
sI1102
I0
sI1103
I1
sI1104
I0
sI1105
I0
sI1106
I1
sI1107
I0
sI1108
I0
sI1109
I0
sI1110
I1
sI1111
I1
sI1112
I0
sI1113
I1
sI1114
I1
sI1115
I1
sI1116
I0
sI1117
I0
sI1118
I0
sI1119
I0
sI1120
I0
sI1121
I0
sI1122
I0
sI1123
I0
sI1124
I0
sI1125
I0
sI1126
I0
sI1127
I0
sI1128
I0
sI1129
I0
sI1130
I0
sI1131
I0
sI1132
I0
sI1133
I1
sI1134
I1
sI1135
I0
sI1136
I0
sI1137
I0
sI1138
I1
sI1139
I0
sI1140
I1
sI1141
I0
sI1142
I0
sI1143
I0
sI1144
I0
sI1145
I1
sI1146
I0
sI1147
I0
sI1148
I0
sI1149
I1
sI1150
I0
sI1151
I0
sI1152
I0
sI1153
I0
sI1154
I1
sI1155
I0
sI1156
I0
sI1157
I0
sI1158
I0
sI1159
I0
sI1160
I0
sI1161
I1
sI1162
I0
sI1163
I0
sI1164
I0
sI1165
I0
sI1166
I0
sI1167
I0
sI1168
I0
sI1169
I0
sI1170
I0
sI1171
I0
sI1172
I0
sI1173
I0
sI1174
I0
sI1175
I0
sI1176
I0
sI1177
I0
sI1178
I0
sI1179
I0
sI1180
I0
sI1181
I0
sI1182
I0
sI1183
I1
sI1184
I0
sI1185
I0
sI1186
I1
sI1187
I1
sI1188
I0
sI1189
I0
sI1190
I0
sI1191
I0
sI1192
I1
sI1193
I0
sI1194
I0
sI1195
I0
sI1196
I0
sI1197
I0
sI1198
I0
sI1199
I0
sI1200
I0
sI1201
I0
sI1202
I0
sI1203
I0
sI1204
I0
sI1205
I1
sI1206
I0
sI1207
I1
sI1208
I1
sI1209
I1
sI1210
I0
sI1211
I0
sI1212
I0
sI1213
I0
sI1214
I1
sI1215
I1
sI1216
I0
sI1217
I1
sI1218
I1
sI1219
I0
sI1220
I0
sI1221
I0
sI1222
I0
sI1223
I0
sI1224
I0
sI1225
I1
sI1226
I1
sI1227
I1
sI1228
I1
sI1229
I0
sI1230
I1
sI1231
I0
sI1232
I0
sI1233
I0
sI1234
I0
sI1235
I0
sI1236
I0
sI1237
I0
sI1238
I0
sI1239
I0
sI1240
I0
sI1241
I0
sI1242
I0
sI1243
I1
sI1244
I0
sI1245
I0
sI1246
I0
sI1247
I1
sI1248
I0
sI1249
I1
sI1250
I1
sI1251
I0
sI1252
I0
sI1253
I0
sI1254
I0
sI1255
I0
sI1256
I0
sI1257
I1
sI1258
I1
sI1259
I1
sI1260
I0
sI1261
I0
sI1263
I0
sI1264
I0
sI1265
I0
sI1266
I0
sI1267
I1
sI1268
I0
sI1269
I0
sI1270
I0
sI1271
I0
sI1272
I0
sI1273
I0
sI1274
I0
sI1275
I1
sI1276
I1
sI1277
I1
sI1278
I0
sI1279
I0
sI1280
I0
sI1281
I0
sI1282
I0
sI1283
I0
sI1284
I1
sI1285
I1
sI1286
I0
sI1288
I0
sI1289
I0
sI1290
I0
sI1291
I0
sI1292
I1
sI1293
I0
sI1294
I0
sI1295
I0
sI1296
I0
sI1297
I0
sI1298
I0
sI1299
I0
sI1300
I0
sI1301
I0
sI1302
I0
sI1303
I0
sI1304
I0
sI1305
I1
sI1306
I0
sI1307
I0
sI1308
I0
sI1309
I0
sI1310
I1
sI1311
I0
sI1312
I1
sI1313
I0
sI1314
I0
sI1315
I0
sI1316
I1
sI1317
I0
sI1318
I0
sI1319
I0
sI1320
I0
sI1321
I0
sI1322
I0
sI1323
I0
sI1324
I1
sI1325
I0
sI1326
I0
sI1327
I1
sI1328
I0
sI1329
I0
sI1330
I1
sI1331
I0
sI1332
I0
sI1334
I0
sI1335
I0
sI1336
I1
sI1337
I1
sI1338
I0
sI1339
I0
sI1340
I1
sI1341
I0
sI1342
I1
sI1343
I1
sI1344
I1
sI1345
I0
sI1346
I0
sI1347
I0
sI1348
I0
sI1349
I0
sI1350
I0
sI1351
I0
sI1352
I0
sI1353
I1
sI1354
I0
sI1355
I0
sI1356
I0
sI1357
I1
sI1358
I0
sI1359
I0
sI1360
I1
sI1361
I0
sI1362
I0
sI1363
I0
sI1364
I0
sI1365
I0
sI1366
I0
sI1367
I0
sI1368
I0
sI1369
I0
sI1370
I0
sI1371
I0
sI1372
I0
sI1373
I0
sI1374
I0
sI1375
I0
sI1376
I0
sI1377
I0
sI1378
I0
sI1379
I0
sI1380
I0
sI1381
I0
sI1382
I1
sI1383
I0
sI1384
I0
sI1385
I0
sI1386
I0
sI1387
I0
sI1388
I0
sI1389
I0
sI1390
I0
sI1391
I0
sI1392
I0
sI1393
I0
sI1394
I0
sI1395
I0
sI1396
I0
sI1397
I1
sI1398
I0
sI1399
I0
sI1400
I0
sI1401
I0
sI1402
I0
sI1403
I0
sI1404
I0
sI1405
I0
sI1406
I0
sI1407
I0
sI1408
I0
sI1409
I1
sI1410
I0
sI1411
I0
sI1412
I0
sI1413
I1
sI1414
I0
sI1415
I0
sI1416
I0
sI1417
I0
sI1418
I1
sI1419
I0
sI1420
I1
sI1421
I1
sI1422
I0
sI1423
I0
sI1424
I1
sI1425
I0
sI1426
I1
sI1427
I1
sI1428
I0
sI1429
I0
sI1430
I0
sI1431
I0
sI1432
I0
sI1433
I0
sI1434
I0
sI1435
I0
sI1436
I0
sI1437
I1
sI1438
I1
sI1439
I0
sI1440
I0
sI1441
I0
sI1442
I0
sI1443
I0
sI1444
I0
sI1445
I0
sI1446
I0
sI1447
I1
sI1448
I0
sI1449
I1
sI1450
I1
sI1451
I0
sI1452
I0
sI1453
I0
sI1454
I0
sI1455
I1
sI1456
I1
sI1457
I0
sI1458
I1
sI1459
I0
sI1460
I0
sI1461
I1
sI1462
I0
sI1463
I0
sI1464
I0
sI1465
I1
sI1466
I1
sI1467
I1
sI1468
I1
sI1469
I0
sI1470
I0
sI1471
I0
sI1473
I0
sI1474
I0
sI1475
I1
sI1476
I0
sI1477
I0
sI1478
I0
sI1479
I1
sI1480
I0
sI1481
I0
sI1482
I0
sI1483
I0
sI1484
I1
sI1485
I1
sI1486
I0
sI1487
I0
sI1488
I0
sI1489
I0
sI1490
I0
sI1491
I0
sI1492
I1
sI1493
I0
sI1494
I0
sI1495
I1
sI1496
I1
sI1497
I1
sI1498
I0
sI1499
I1
sI1500
I1
sI1501
I1
sI1502
I0
sI1503
I0
sI1504
I0
sI1505
I0
sI1506
I1
sI1507
I0
sI1508
I0
sI1509
I0
sI1510
I0
sI1511
I0
sI1512
I0
sI1513
I1
sI1514
I0
sI1515
I0
sI1516
I0
sI1517
I0
sI1518
I0
sI1519
I0
sI1520
I0
sI1521
I0
sI1522
I1
sI1523
I1
sI1524
I0
sI1525
I1
sI1526
I0
sI1527
I0
sI1528
I0
sI1529
I0
sI1530
I0
sI1531
I1
sI1532
I0
sI1533
I0
sI1534
I0
sI1535
I0
sI1536
I0
sI1537
I0
sI1539
I1
sI1540
I0
sI1541
I0
sI1542
I0
sI1543
I0
sI1544
I0
sI1545
I0
sI1546
I0
sI1547
I0
sI1548
I0
sI1549
I0
sI1550
I0
sI1551
I0
sI1552
I0
sI1553
I1
sI1554
I0
sI1555
I0
sI1556
I0
sI1557
I0
sI1558
I0
sI1559
I0
sI1560
I1
sI1561
I0
sI1562
I0
sI1563
I0
sI1564
I1
sI1565
I0
sI1566
I0
sI1567
I0
sI1568
I0
sI1569
I0
sI1570
I1
sI1571
I1
sI1572
I0
sI1573
I0
sI1574
I0
sI1575
I0
sI1576
I0
sI1577
I0
sI1579
I0
sI1580
I0
sI1581
I1
sI1582
I0
sI1583
I0
sI1584
I1
sI1585
I0
sI1586
I0
sI1587
I0
sI1588
I0
sI1589
I1
sI1590
I0
sI1591
I1
sI1592
I0
sI1593
I1
sI1594
I1
sI1595
I0
sI1596
I0
sI1597
I0
sI1598
I1
sI1599
I0
sI1600
I0
sI1601
I0
sI1602
I0
sI1603
I0
sI1604
I0
sI1605
I0
sI1606
I1
sI1607
I0
sI1608
I0
sI1609
I0
sI1610
I0
sI1611
I0
sI1612
I1
sI1613
I0
sI1614
I1
sI1615
I1
sI1616
I0
sI1617
I0
sI1618
I0
sI1619
I0
sI1620
I0
sI1621
I0
sI1622
I1
sI1623
I0
sI1624
I1
sI1625
I0
sI1626
I0
sI1627
I0
sI1628
I0
sI1629
I0
sI1630
I0
sI1631
I0
sI1632
I1
sI1633
I0
sI1634
I1
sI1635
I1
sI1636
I0
sI1637
I1
sI1638
I0
sI1639
I1
sI1640
I0
sI1641
I0
sI1642
I0
sI1643
I0
sI1644
I0
sI1645
I1
sI1646
I0
sI1647
I0
sI1648
I1
sI1649
I0
sI1650
I0
sI1651
I0
sI1652
I0
sI1653
I0
sI1654
I0
sI1655
I0
sI1656
I0
sI1657
I0
sI1658
I0
sI1659
I1
sI1660
I1
sI1661
I0
sI1662
I0
sI1663
I0
sI1664
I0
sI1665
I0
sI1666
I0
sI1667
I0
sI1668
I0
sI1669
I1
sI1670
I0
sI1671
I0
sI1672
I0
sI1673
I0
sI1674
I1
sI1675
I0
sI1676
I0
sI1677
I0
sI1678
I0
sI1679
I1
sI1680
I1
sI1681
I0
sI1682
I1
sI1683
I1
sI1684
I0
sI1685
I0
sI1686
I0
sI1687
I0
sI1688
I1
sI1689
I1
sI1690
I1
sI1691
I0
sI1692
I1
sI1693
I0
sI1694
I0
sI1695
I0
sI1696
I0
sI1697
I0
sI1698
I0
sI1699
I0
sI1700
I0
sI1701
I0
sI1702
I0
sI1703
I0
sI1704
I0
sI1705
I0
sI1706
I0
sI1707
I0
sI1708
I0
sI1709
I0
sI1710
I0
sI1711
I1
sI1712
I0
sI1713
I1
sI1714
I0
sI1715
I0
sI1716
I0
sI1717
I0
sI1719
I0
sI1720
I0
sI1721
I0
sI1722
I0
sI1723
I1
sI1724
I0
sI1725
I0
sI1726
I1
sI1727
I0
sI1728
I1
sI1729
I1
sI1730
I0
sI1731
I0
sI1732
I0
sI1733
I1
sI1734
I0
sI1735
I0
sI1736
I0
sI1737
I1
sI1738
I0
sI1739
I0
sI1740
I0
sI1741
I0
sI1742
I0
sI1743
I1
sI1744
I0
sI1745
I0
sI1746
I0
sI1747
I0
sI1748
I1
sI1749
I0
sI1750
I0
sI1751
I0
sI1752
I1
sI1753
I0
sI1754
I0
sI1755
I0
sI1756
I0
sI1757
I0
sI1758
I0
sI1759
I0
sI1760
I0
sI1761
I0
sI1762
I0
sI1763
I0
sI1764
I0
sI1765
I0
sI1766
I1
sI1767
I0
sI1768
I0
sI1769
I0
sI1770
I0
sI1771
I0
sI1772
I0
sI1773
I0
sI1774
I0
sI1775
I0
sI1776
I0
sI1777
I0
sI1778
I0
sI1779
I0
sI1780
I0
sI1781
I0
sI1782
I0
sI1784
I0
sI1785
I1
sI1786
I1
sI1787
I0
sI1788
I0
sI1789
I1
sI1790
I0
sI1791
I0
sI1792
I0
sI1793
I1
sI1794
I0
sI1795
I0
sI1796
I0
sI1797
I0
sI1798
I0
sI1799
I0
sI1800
I0
sI1801
I0
sI1802
I0
sI1803
I1
sI1804
I0
sI1805
I1
sI1806
I0
sI1807
I0
sI1808
I1
sI1809
I0
sI1810
I0
sI1811
I0
sI1812
I0
sI1813
I0
sI1814
I1
sI1815
I0
sI1816
I0
sI1817
I0
sI1818
I1
sI1819
I0
sI1820
I0
sI1821
I1
sI1822
I0
sI1823
I0
sI1824
I0
sI1825
I0
sI1826
I0
sI1827
I0
sI1829
I0
sI1830
I0
sI1831
I0
sI1832
I0
sI1833
I0
sI1834
I0
sI1835
I1
sI1836
I1
sI1837
I0
sI1838
I0
sI1839
I1
sI1840
I0
sI1841
I0
sI1842
I1
sI1843
I0
sI1844
I1
sI1845
I0
sI1846
I0
sI1847
I0
sI1848
I0
sI1849
I0
sI1850
I0
sI1851
I0
sI1852
I1
sI1853
I0
sI1854
I1
sI1855
I0
sI1856
I0
sI1857
I1
sI1858
I0
sI1859
I0
sI1860
I0
sI1861
I0
sI1862
I1
sI1863
I1
sI1864
I0
sI1865
I0
sI1866
I0
sI1867
I0
sI1868
I0
sI1869
I0
sI1870
I1
sI1871
I0
sI1872
I0
sI1873
I0
sI1874
I1
sI1875
I0
sI1876
I0
sI1877
I0
sI1878
I0
sI1879
I0
sI1880
I0
sI1881
I0
sI1882
I1
sI1883
I0
sI1884
I0
sI1885
I0
sI1886
I0
sI1887
I1
sI1888
I0
sI1889
I0
sI1890
I0
sI1891
I1
sI1892
I0
sI1893
I0
sI1894
I0
sI1895
I0
sI1896
I0
sI1897
I0
sI1898
I1
sI1899
I0
sI1900
I0
sI1901
I0
sI1902
I0
sI1903
I0
sI1904
I1
sI1905
I0
sI1906
I1
sI1907
I0
sI1908
I0
sI1909
I0
sI1910
I0
sI1911
I0
sI1912
I1
sI1913
I0
sI1914
I0
sI1915
I0
sI1916
I0
sI1917
I1
sI1918
I0
sI1919
I0
sI1920
I0
sI1921
I1
sI1922
I0
sI1923
I0
sI1924
I0
sI1925
I0
sI1926
I0
sI1927
I0
sI1928
I0
sI1929
I0
sI1930
I1
sI1931
I0
sI1932
I1
sI1933
I1
sI1934
I0
sI1936
I1
sI1937
I1
sI1938
I1
sI1939
I0
sI1940
I0
sI1941
I0
sI1942
I0
sI1943
I0
sI1944
I0
sI1945
I0
sI1946
I0
sI1947
I1
sI1948
I1
sI1949
I0
sI1950
I0
sI1951
I1
sI1952
I0
sI1953
I0
sI1954
I0
sI1955
I1
sI1956
I0
sI1957
I1
sI1958
I0
sI1959
I0
sI1960
I1
sI1962
I0
sI1963
I0
sI1964
I1
sI1965
I0
sI1966
I0
sI1967
I0
sI1968
I0
sI1969
I0
sI1970
I0
sI1971
I0
sI1972
I0
sI1973
I1
sI1974
I0
sI1975
I0
sI1976
I0
sI1977
I0
sI1978
I0
sI1979
I0
sI1980
I0
sI1981
I1
sI1982
I0
sI1983
I0
sI1984
I0
sI1985
I0
sI1986
I1
sI1987
I0
sI1988
I0
sI1989
I0
sI1990
I1
sI1991
I0
sI1992
I1
sI1993
I0
sI1994
I0
sI1995
I0
sI1996
I0
sI1997
I1
sI1998
I0
sI1999
I0
sI2000
I0
sI2001
I1
sI2002
I0
sI2003
I0
sI2004
I0
sI2005
I0
sI2006
I0
sI2007
I0
sI2008
I1
sI2009
I0
sI2010
I0
sI2011
I0
sI2012
I0
sI2013
I1
sI2014
I0
sI2015
I0
sI2016
I0
sI2017
I0
sI2018
I0
sI2019
I0
sI2020
I0
sI2021
I0
sI2023
I0
sI2024
I0
sI2025
I0
sI2026
I0
sI2027
I0
sI2028
I0
sI2029
I0
sI2030
I0
sI2031
I0
sI2032
I0
sI2033
I0
sI2034
I0
sI2035
I0
sI2036
I0
sI2037
I0
sI2038
I0
sI2039
I1
sI2040
I1
sI2041
I0
sI2042
I0
sI2043
I1
sI2044
I0
sI2045
I1
sI2046
I0
sI2047
I0
sI2048
I0
sI2049
I0
sI2050
I0
sI2051
I0
sI2052
I0
sI2053
I0
sI2054
I0
sI2055
I1
sI2056
I0
sI2057
I0
sI2058
I0
sI2059
I0
sI2060
I0
sI2062
I0
sI2063
I0
sI2064
I0
sI2065
I1
sI2066
I0
sI2067
I1
sI2068
I0
sI2069
I1
sI2070
I1
sI2071
I1
sI2072
I0
sI2073
I0
sI2074
I1
sI2075
I0
sI2076
I0
sI2077
I0
sI2078
I0
sI2079
I0
sI2080
I0
sI2081
I1
sI2082
I0
sI2083
I0
sI2084
I1
sI2085
I0
sI2086
I0
sI2087
I0
sI2088
I1
sI2089
I0
sI2090
I0
sI2091
I0
sI2092
I0
sI2093
I0
sI2094
I0
sI2095
I0
sI2096
I0
sI2097
I1
sI2098
I1
sI2099
I0
sI2100
I0
sI2101
I0
sI2102
I0
sI2103
I0
sI2104
I1
sI2105
I0
sI2106
I0
sI2107
I0
sI2108
I0
sI2109
I0
sI2110
I1
sI2111
I0
sI2112
I0
sI2113
I1
sI2114
I1
sI2115
I0
sI2116
I0
sI2117
I0
sI2118
I0
sI2119
I1
sI2120
I0
sI2121
I1
sI2122
I0
sI2123
I0
sI2124
I0
sI2125
I0
sI2126
I0
sI2127
I1
sI2128
I0
sI2129
I0
sI2130
I0
sI2131
I0
sI2132
I0
sI2133
I0
sI2134
I1
sI2135
I0
sI2136
I0
sI2137
I0
sI2138
I0
sI2139
I0
sI2140
I1
sI2141
I0
sI2142
I1
sI2143
I0
sI2144
I0
sI2145
I0
sI2146
I1
sI2147
I0
sI2148
I0
sI2149
I0
sI2150
I0
sI2151
I0
sI2152
I1
sI2153
I0
sI2154
I0
sI2155
I0
sI2156
I0
sI2157
I0
sI2158
I0
sI2159
I0
sI2160
I0
sI2161
I0
sI2162
I0
sI2163
I0
sI2164
I0
sI2165
I0
sI2166
I0
sI2167
I0
sI2168
I0
sI2169
I0
sI2170
I0
sI2171
I0
sI2172
I0
sI2173
I0
sI2174
I0
sI2175
I0
sI2176
I0
sI2177
I0
sI2178
I0
sI2179
I1
sI2180
I0
sI2181
I1
sI2182
I0
sI2183
I0
sI2184
I1
sI2185
I1
sI2186
I0
sI2187
I0
sI2188
I0
sI2189
I1
sI2190
I0
sI2191
I0
sI2192
I0
sI2193
I1
sI2194
I1
sI2195
I0
sI2196
I1
sI2197
I0
sI2198
I0
sI2199
I0
sI2200
I0
sI2202
I0
sI2203
I0
sI2204
I1
sI2205
I0
sI2206
I0
sI2207
I1
sI2208
I0
sI2209
I0
sI2210
I0
sI2211
I0
sI2212
I0
sI2213
I1
sI2214
I0
sI2215
I0
sI2216
I0
sI2217
I0
sI2218
I0
sI2219
I0
sI2220
I0
sI2221
I0
sI2222
I0
sI2223
I0
sI2224
I1
sI2225
I0
sI2226
I1
sI2227
I0
sI2228
I0
sI2229
I0
sI2230
I0
sI2231
I0
sI2232
I0
sI2233
I0
sI2234
I1
sI2235
I0
sI2236
I0
sI2237
I0
sI2238
I0
sI2239
I0
sI2240
I0
sI2241
I0
sI2242
I0
sI2243
I0
sI2244
I0
sI2245
I0
sI2246
I0
sI2247
I0
sI2248
I1
sI2249
I0
sI2250
I1
sI2251
I0
sI2252
I0
sI2253
I1
sI2254
I1
sI2255
I0
sI2256
I0
sI2257
I0
sI2258
I0
sI2259
I0
sI2260
I0
sI2261
I0
sI2262
I1
sI2263
I1
sI2264
I0
sI2265
I0
sI2266
I1
sI2267
I0
sI2268
I0
sI2269
I0
sI2270
I0
sI2271
I1
sI2272
I1
sI2273
I0
sI2274
I1
sI2275
I0
sI2277
I0
sI2278
I0
sI2279
I0
sI2280
I0
sI2281
I0
sI2282
I0
sI2283
I1
sI2284
I1
sI2285
I0
sI2286
I0
sI2287
I0
sI2288
I0
sI2289
I0
sI2290
I0
sI2291
I0
sI2292
I1
sI2293
I0
sI2294
I0
sI2295
I1
sI2296
I1
sI2297
I0
sI2298
I0
sI2299
I0
sI2300
I0
sI2301
I1
sI2302
I0
sI2303
I0
sI2304
I0
sI2305
I1
sI2306
I0
sI2307
I0
sI2308
I1
sI2309
I0
sI2310
I1
sI2312
I1
sI2313
I0
sI2314
I0
sI2315
I0
sI2316
I0
sI2317
I1
sI2318
I0
sI2319
I0
sI2320
I1
sI2321
I0
sI2322
I0
sI2323
I1
sI2324
I0
sI2325
I0
sI2326
I1
sI2327
I0
sI2328
I0
sI2329
I0
sI2330
I0
sI2331
I0
sI2332
I0
sI2333
I0
sI2334
I0
sI2335
I1
sI2336
I0
sI2337
I0
sI2338
I0
sI2339
I0
sI2340
I0
sI2341
I1
sI2342
I0
sI2343
I1
sI2344
I0
sI2345
I0
sI2346
I1
sI2347
I0
sI2348
I0
sI2349
I0
sI2350
I0
sI2351
I1
sI2352
I0
sI2353
I0
sI2354
I0
sI2355
I0
sI2356
I0
sI2357
I1
sI2358
I0
sI2359
I0
sI2360
I0
sI2361
I1
sI2362
I0
sI2363
I0
sI2364
I0
sI2365
I0
sI2366
I0
sI2367
I0
sI2368
I0
sI2369
I1
sI2370
I0
sI2371
I0
sI2372
I0
sI2373
I0
sI2374
I0
sI2376
I0
sI2377
I0
sI2378
I0
sI2379
I0
sI2380
I0
sI2381
I0
sI2382
I0
sI2383
I0
sI2384
I0
sI2385
I0
sI2386
I0
sI2387
I1
sI2388
I0
sI2389
I1
sI2390
I0
sI2391
I0
sI2392
I0
sI2393
I0
sI2394
I0
sI2395
I0
sI2396
I0
sI2397
I0
sI2398
I0
sI2399
I0
sI2400
I0
sI2401
I0
sI2402
I0
sI2403
I1
sI2404
I1
sI2405
I0
sI2406
I0
sI2407
I1
sI2408
I0
sI2409
I0
sI2410
I0
sI2411
I0
sI2412
I0
sI2413
I1
sI2414
I1
sI2415
I1
sI2416
I0
sI2417
I0
sI2418
I1
sI2419
I0
sI2420
I0
sI2421
I0
sI2422
I0
sI2423
I1
sI2424
I1
sI2425
I0
sI2426
I0
sI2427
I1
sI2428
I0
sI2429
I0
sI2430
I0
sI2431
I1
sI2432
I0
sI2433
I1
sI2434
I0
sI2435
I0
sI2436
I0
sI2437
I1
sI2438
I0
sI2439
I1
sI2440
I0
sI2441
I0
sI2442
I0
sI2443
I0
sI2444
I0
sI2445
I1
sI2446
I0
sI2447
I0
sI2448
I0
sI2449
I1
sI2450
I0
sI2451
I0
sI2452
I0
sI2453
I0
sI2454
I0
sI2455
I0
sI2456
I1
sI2457
I0
sI2458
I1
sI2459
I1
sI2460
I0
sI2461
I0
sI2462
I0
sI2463
I0
sI2464
I0
sI2465
I0
sI2466
I0
sI2467
I0
sI2468
I0
sI2469
I0
sI2470
I0
sI2471
I0
sI2472
I1
sI2473
I1
sI2474
I1
sI2475
I0
sI2476
I0
sI2477
I1
sI2478
I0
sI2479
I0
sI2480
I0
sI2481
I0
sI2482
I0
sI2483
I0
sI2484
I0
sI2485
I0
sI2486
I0
sI2487
I0
sI2488
I0
sI2489
I0
sI2490
I1
sI2491
I0
sI2492
I0
sI2493
I0
sI2494
I0
sI2495
I1
sI2496
I0
sI2497
I0
sI2498
I0
sI2499
I1
sI2500
I0
sI2501
I0
sI2502
I0
sI2504
I1
sI2505
I0
sI2506
I1
sI2507
I0
sI2508
I1
sI2509
I0
sI2510
I0
sI2511
I0
sI2512
I0
sI2513
I0
sI2514
I0
sI2515
I1
sI2516
I0
sI2517
I0
sI2518
I1
sI2519
I0
sI2520
I0
sI2521
I0
sI2522
I0
sI2523
I1
sI2524
I0
sI2525
I0
sI2526
I0
sI2527
I0
sI2528
I0
sI2529
I0
sI2530
I0
sI2531
I0
sI2532
I0
sI2533
I0
sI2534
I0
sI2535
I0
sI2537
I1
sI2538
I0
sI2539
I0
sI2540
I0
sI2541
I0
sI2542
I0
sI2543
I0
sI2544
I1
sI2545
I0
sI2546
I1
sI2547
I1
sI2548
I0
sI2549
I0
sI2550
I0
sI2551
I0
sI2552
I0
sI2553
I1
sI2554
I1
sI2555
I0
sI2556
I1
sI2557
I1
sI2558
I0
sI2559
I1
sI2560
I0
sI2561
I0
sI2562
I0
sI2563
I0
sI2564
I1
sI2565
I0
sI2566
I0
sI2567
I0
sI2568
I0
sI2569
I0
sI2570
I0
sI2571
I1
sI2572
I0
sI2573
I1
sI2574
I0
sI2575
I0
sI2576
I0
sI2577
I0
sI2578
I0
sI2579
I0
sI2580
I1
sI2581
I0
sI2582
I1
sI2583
I0
sI2584
I1
sI2585
I0
sI2586
I0
sI2587
I0
sI2588
I0
sI2589
I1
sI2590
I0
sI2591
I0
sI2592
I1
sI2593
I0
sI2594
I0
sI2595
I0
sI2596
I0
sI2597
I1
sI2598
I0
sI2599
I0
sI2600
I0
sI2601
I1
sI2602
I0
sI2603
I0
sI2604
I1
sI2605
I0
sI2606
I0
sI2607
I1
sI2608
I0
sI2609
I0
sI2610
I0
sI2611
I0
sI2612
I0
sI2613
I0
sI2614
I0
sI2615
I0
sI2616
I1
sI2617
I0
sI2618
I1
sI2619
I0
sI2620
I1
sI2621
I0
sI2622
I1
sI2623
I1
sI2624
I1
sI2625
I0
sI2626
I0
sI2627
I0
sI2628
I1
sI2629
I0
sI2630
I1
sI2631
I0
sI2632
I0
sI2633
I1
sI2634
I0
sI2635
I1
sI2636
I0
sI2637
I0
sI2638
I0
sI2639
I0
sI2640
I1
sI2641
I0
sI2642
I0
sI2643
I0
sI2644
I0
sI2645
I1
sI2646
I0
sI2647
I0
sI2648
I0
sI2649
I0
sI2650
I0
sI2651
I1
sI2652
I1
sI2653
I0
sI2654
I0
sI2655
I0
sI2656
I1
sI2657
I0
sI2658
I0
sI2659
I1
sI2660
I1
sI2661
I1
sI2662
I1
sI2663
I0
sI2664
I1
sI2665
I0
sI2666
I0
sI2667
I0
sI2668
I0
sI2670
I1
sI2671
I0
sI2672
I0
sI2673
I0
sI2674
I0
sI2675
I1
sI2676
I0
sI2677
I1
sI2678
I0
sI2679
I1
sI2680
I0
sI2681
I0
sI2682
I0
sI2683
I1
sI2684
I0
sI2685
I0
sI2686
I0
sI2687
I1
sI2688
I0
sI2689
I0
sI2690
I0
sI2691
I0
sI2692
I1
sI2693
I0
sI2694
I0
sI2695
I0
sI2696
I1
sI2697
I0
sI2698
I0
sI2699
I1
sI2701
I0
sI2702
I1
sI2703
I0
sI2704
I1
sI2705
I0
sI2706
I0
sI2707
I0
sI2708
I0
sI2709
I0
sI2710
I0
sI2711
I0
sI2712
I0
sI2713
I0
sI2714
I0
sI2715
I0
sI2716
I0
sI2717
I0
sI2718
I1
sI2719
I0
sI2720
I0
sI2721
I0
sI2722
I1
sI2723
I0
sI2724
I0
sI2725
I0
sI2726
I0
sI2727
I0
sI2728
I1
sI2729
I1
sI2730
I1
sI2731
I0
sI2732
I0
sI2734
I0
sI2735
I0
sI2736
I0
sI2737
I0
sI2738
I0
sI2739
I0
sI2740
I0
sI2741
I1
sI2742
I0
sI2743
I1
sI2744
I1
sI2745
I0
sI2746
I0
sI2747
I1
sI2748
I0
sI2749
I0
sI2750
I0
sI2751
I1
sI2752
I1
sI2753
I0
sI2754
I0
sI2755
I0
sI2756
I0
sI2757
I0
sI2758
I0
sI2759
I0
sI2760
I0
sI2761
I0
sI2762
I0
sI2763
I0
sI2764
I0
sI2765
I1
sI2767
I0
sI2768
I0
sI2769
I0
sI2770
I0
sI2771
I0
sI2772
I0
sI2773
I1
sI2774
I1
sI2775
I0
sI2776
I0
sI2777
I0
sI2778
I0
sI2779
I0
sI2780
I0
sI2781
I1
sI2782
I0
sI2783
I0
sI2784
I1
sI2785
I0
sI2786
I0
sI2787
I0
sI2788
I0
sI2789
I0
sI2790
I0
sI2791
I0
sI2792
I0
sI2793
I0
sI2794
I1
sI2795
I0
sI2796
I0
sI2797
I0
sI2798
I0
sI2799
I0
sI2800
I0
sI2801
I0
sI2802
I0
sI2803
I0
sI2804
I0
sI2805
I1
sI2806
I1
sI2807
I0
sI2808
I0
sI2809
I0
sI2810
I0
sI2811
I0
sI2812
I0
sI2813
I1
sI2814
I1
sI2815
I0
sI2816
I0
sI2817
I0
sI2818
I0
sI2819
I0
sI2820
I1
sI2821
I0
sI2822
I0
sI2823
I0
sI2824
I0
sI2825
I0
sI2826
I0
sI2827
I0
sI2829
I1
sI2830
I0
sI2831
I0
sI2832
I1
sI2833
I1
sI2834
I0
sI2835
I0
sI2836
I0
sI2837
I0
sI2838
I0
sI2839
I0
sI2840
I0
sI2841
I0
sI2842
I0
sI2843
I0
sI2844
I1
sI2845
I0
sI2846
I0
sI2847
I1
sI2848
I0
sI2849
I0
sI2850
I0
sI2851
I0
sI2852
I0
sI2853
I0
sI2854
I0
sI2855
I0
sI2856
I0
sI2857
I1
sI2858
I0
sI2859
I1
sI2860
I0
sI2861
I0
sI2862
I0
sI2863
I0
sI2864
I0
sI2865
I0
sI2866
I0
sI2867
I0
sI2868
I1
sI2869
I0
sI2870
I0
sI2871
I0
sI2872
I1
sI2873
I1
sI2874
I0
sI2875
I0
sI2876
I0
sI2877
I0
sI2878
I0
sI2879
I1
sI2880
I1
sI2881
I0
sI2882
I0
sI2883
I0
sI2884
I0
sI2885
I0
sI2886
I0
sI2887
I0
sI2888
I0
sI2889
I0
sI2890
I1
sI2891
I0
sI2892
I0
sI2893
I0
sI2894
I0
sI2895
I0
sI2896
I0
sI2897
I0
sI2898
I0
sI2900
I0
sI2901
I0
sI2902
I0
sI2903
I1
sI2904
I0
sI2905
I1
sI2906
I0
sI2907
I0
sI2908
I0
sI2909
I0
sI2910
I0
sI2911
I0
sI2912
I0
sI2913
I1
sI2914
I1
sI2915
I0
sI2916
I0
sI2917
I0
sI2918
I0
sI2919
I1
sI2920
I0
sI2921
I0
sI2922
I0
sI2923
I0
sI2924
I0
sI2925
I0
sI2926
I1
sI2927
I1
sI2928
I1
sI2929
I0
sI2930
I1
sI2931
I1
sI2932
I0
sI2933
I0
sI2934
I1
sI2935
I1
sI2936
I1
sI2937
I1
sI2938
I0
sI2939
I0
sI2940
I0
sI2941
I0
sI2942
I0
sI2943
I0
sI2944
I1
sI2945
I1
sI2946
I0
sI2947
I0
sI2948
I0
sI2949
I0
sI2950
I0
sI2951
I1
sI2952
I0
sI2953
I0
sI2954
I0
sI2955
I0
sI2956
I0
sI2957
I0
sI2958
I0
sI2959
I0
sI2960
I0
sI2961
I0
sI2962
I0
sI2963
I0
sI2964
I0
sI2965
I1
sI2967
I0
sI2968
I0
sI2969
I0
sI2970
I0
sI2971
I0
sI2972
I1
sI2973
I0
sI2974
I0
sI2975
I1
sI2976
I0
sI2977
I0
sI2978
I0
sI2979
I0
sI2980
I0
sI2981
I0
sI2982
I0
sI2983
I0
sI2984
I1
sI2985
I0
sI2986
I0
sI2987
I0
sI2988
I0
sI2989
I0
sI2990
I0
sI2991
I0
sI2992
I0
sI2993
I1
sI2994
I0
sI2995
I0
sI2996
I0
sI2997
I0
sI2998
I1
sI2999
I1
sI3000
I0
sI3001
I0
sI3002
I0
sI3003
I0
sI3004
I1
sI3006
I0
sI3007
I0
sI3008
I0
sI3009
I0
sI3010
I1
sI3011
I0
sI3012
I0
sI3013
I0
sI3014
I0
sI3015
I0
sI3016
I0
sI3017
I0
sI3018
I0
sI3019
I0
sI3020
I1
sI3021
I1
sI3022
I1
sI3023
I0
sI3024
I0
sI3025
I0
sI3026
I0
sI3027
I1
sI3028
I0
sI3029
I0
sI3030
I0
sI3031
I0
sI3032
I0
sI3033
I0
sI3034
I0
sI3035
I0
sI3036
I0
sI3037
I1
sI3038
I0
sI3039
I0
sI3040
I0
sI3041
I0
sI3042
I1
sI3043
I1
sI3044
I1
sI3045
I0
sI3046
I0
sI3047
I0
sI3048
I0
sI3049
I0
sI3050
I1
sI3051
I0
sI3052
I0
sI3053
I0
sI3054
I0
sI3055
I0
sI3056
I0
sI3057
I0
sI3058
I1
sI3059
I1
sI3060
I1
sI3061
I0
sI3062
I0
sI3063
I0
sI3064
I0
sI3065
I0
sI3066
I0
sI3067
I1
sI3068
I0
sI3069
I0
sI3070
I1
sI3071
I0
sI3072
I0
sI3074
I0
sI3075
I0
sI3076
I0
sI3077
I0
sI3078
I1
sI3079
I0
sI3080
I1
sI3081
I1
sI3082
I0
sI3083
I0
sI3084
I1
sI3085
I0
sI3086
I0
sI3087
I0
sI3088
I0
sI3089
I0
sI3090
I1
sI3091
I0
sI3092
I0
sI3093
I0
sI3094
I0
sI3095
I0
sI3096
I1
sI3097
I0
sI3098
I0
sI3099
I0
sI3100
I0
sI3101
I1
sI3102
I0
sI3103
I0
sI3104
I0
sI3105
I0
sI3106
I0
sI3107
I0
sI3108
I0
sI3109
I0
sI3110
I1
sI3111
I0
sI3112
I0
sI3113
I0
sI3114
I1
sI3115
I0
sI3116
I0
sI3117
I0
sI3118
I0
sI3119
I0
sI3120
I0
sI3121
I0
sI3122
I0
sI3123
I0
sI3124
I1
sI3125
I0
sI3126
I1
sI3127
I1
sI3128
I0
sI3129
I0
sI3130
I1
sI3131
I0
sI3132
I0
sI3133
I0
sI3134
I0
sI3135
I0
sI3136
I0
sI3138
I0
sI3139
I0
sI3140
I0
sI3141
I0
sI3142
I1
sI3143
I0
sI3144
I1
sI3145
I0
sI3146
I0
sI3147
I0
sI3148
I0
sI3149
I0
sI3150
I0
sI3151
I0
sI3152
I0
sI3153
I0
sI3154
I0
sI3155
I0
sI3156
I0
sI3157
I0
sI3158
I0
sI3159
I0
sI3160
I0
sI3161
I1
sI3162
I0
sI3163
I0
sI3164
I0
sI3165
I0
sI3166
I0
sI3167
I0
sI3168
I1
sI3169
I0
sI3170
I0
sI3171
I0
sI3172
I0
sI3173
I1
sI3174
I1
sI3175
I0
sI3176
I1
sI3177
I1
sI3178
I0
sI3179
I0
sI3180
I0
sI3181
I0
sI3182
I0
sI3183
I0
sI3184
I0
sI3185
I0
sI3186
I0
sI3187
I0
sI3188
I0
sI3189
I0
sI3190
I0
sI3191
I1
sI3192
I0
sI3193
I0
sI3194
I0
sI3195
I1
sI3196
I1
sI3197
I0
sI3198
I1
sI3199
I0
sI3200
I0
sI3201
I0
sI3202
I0
sI3203
I0
sI3204
I0
sI3205
I1
sI3206
I0
sI3207
I0
sI3208
I0
sI3210
I0
sI3211
I0
sI3212
I0
sI3213
I0
sI3214
I1
sI3215
I1
sI3216
I0
sI3217
I1
sI3218
I0
sI3219
I0
sI3220
I0
sI3221
I0
sI3222
I0
sI3223
I0
sI3224
I0
sI3225
I1
sI3226
I0
sI3227
I0
sI3228
I0
sI3229
I0
sI3230
I1
sI3231
I1
sI3232
I0
sI3233
I0
sI3234
I0
sI3235
I0
sI3236
I0
sI3237
I0
sI3238
I0
sI3239
I0
sI3240
I0
sI3241
I0
sI3242
I0
sI3243
I0
sI3244
I0
sI3246
I0
sI3247
I0
sI3248
I0
sI3249
I0
sI3250
I1
sI3251
I1
sI3252
I0
sI3253
I0
sI3254
I0
sI3255
I0
sI3256
I0
sI3257
I0
sI3258
I0
sI3259
I0
sI3260
I0
sI3261
I0
sI3262
I0
sI3263
I0
sI3264
I1
sI3265
I0
sI3266
I0
sI3267
I0
sI3268
I0
sI3269
I0
sI3270
I0
sI3271
I0
sI3272
I0
sI3273
I1
sI3274
I0
sI3275
I0
sI3276
I0
sI3277
I1
sI3278
I1
sI3279
I0
sI3280
I0
sI3281
I0
sI3282
I0
sI3283
I0
sI3284
I0
sI3285
I0
sI3286
I0
sI3287
I0
sI3288
I0
sI3289
I1
sI3290
I0
sI3291
I0
sI3292
I0
sI3293
I0
sI3294
I0
sI3295
I0
sI3296
I1
sI3297
I0
sI3298
I0
sI3299
I0
sI3300
I0
sI3301
I1
sI3302
I0
sI3303
I1
sI3304
I0
sI3305
I0
sI3306
I0
sI3307
I0
sI3308
I0
sI3309
I1
sI3310
I0
sI3311
I0
sI3312
I0
sI3313
I0
sI3314
I1
sI3315
I1
sI3317
I0
sI3318
I0
sI3319
I0
sI3320
I0
sI3321
I0
sI3322
I0
sI3323
I0
sI3324
I0
sI3325
I0
sI3326
I0
sI3327
I0
sI3328
I1
sI3329
I0
sI3330
I0
sI3331
I0
sI3332
I1
sI3333
I1
sI3334
I1
sI3335
I0
sI3336
I0
sI3337
I0
sI3338
I0
sI3339
I0
sI3340
I0
sI3341
I1
sI3342
I1
sI3343
I0
sI3344
I0
sI3345
I0
sI3346
I0
sI3347
I0
sI3348
I0
sI3349
I0
sI3350
I0
sI3351
I0
sI3352
I0
sI3353
I0
sI3354
I1
sI3355
I0
sI3356
I0
sI3357
I0
sI3358
I0
sI3359
I1
sI3360
I0
sI3361
I0
sI3362
I0
sI3363
I0
sI3364
I0
sI3365
I0
sI3366
I1
sI3367
I0
sI3368
I0
sI3369
I0
sI3370
I0
sI3371
I0
sI3372
I1
sI3373
I1
sI3374
I0
sI3375
I0
sI3376
I1
sI3377
I0
sI3378
I1
sI3379
I0
sI3380
I1
sI3381
I0
sI3382
I0
sI3383
I0
sI3385
I0
sI3386
I0
sI3387
I0
sI3388
I0
sI3389
I0
sI3390
I0
sI3391
I1
sI3392
I1
sI3393
I0
sI3394
I0
sI3395
I0
sI3396
I0
sI3397
I1
sI3398
I1
sI3399
I1
sI3400
I0
sI3401
I0
sI3402
I0
sI3403
I0
sI3404
I1
sI3405
I0
sI3406
I0
sI3407
I0
sI3408
I0
sI3409
I0
sI3410
I1
sI3411
I0
sI3412
I0
sI3413
I1
sI3414
I0
sI3415
I0
sI3416
I0
sI3417
I0
sI3418
I0
sI3419
I0
sI3420
I0
sI3421
I0
sI3422
I0
sI3423
I1
sI3424
I0
sI3425
I1
sI3426
I0
sI3427
I1
sI3428
I1
sI3429
I0
sI3430
I1
sI3431
I0
sI3432
I0
sI3433
I0
sI3434
I0
sI3435
I0
sI3436
I0
sI3437
I0
sI3438
I0
sI3439
I0
sI3440
I0
sI3441
I0
sI3442
I0
sI3443
I1
sI3444
I1
sI3445
I0
sI3447
I0
sI3448
I0
sI3449
I0
sI3450
I1
sI3451
I1
sI3452
I0
sI3453
I0
sI3454
I0
sI3455
I0
sI3456
I0
sI3457
I1
sI3458
I0
sI3459
I0
sI3460
I0
sI3461
I0
sI3462
I1
sI3463
I0
sI3464
I0
sI3465
I0
sI3466
I0
sI3467
I0
sI3468
I0
sI3469
I0
sI3470
I1
sI3471
I0
sI3472
I0
sI3473
I0
sI3474
I0
sI3475
I0
sI3476
I0
sI3477
I0
sI3478
I1
sI3479
I0
sI3480
I0
sI3481
I0
sI3483
I0
sI3484
I1
sI3485
I0
sI3486
I0
sI3487
I0
sI3488
I0
sI3489
I1
sI3490
I0
sI3491
I0
sI3492
I0
sI3493
I0
sI3494
I0
sI3495
I0
sI3496
I0
sI3497
I1
sI3498
I0
sI3499
I0
sI3500
I0
sI3501
I1
sI3502
I0
sI3503
I1
sI3504
I0
sI3505
I0
sI3506
I0
sI3507
I0
sI3508
I1
sI3509
I0
sI3510
I1
sI3511
I0
sI3512
I0
sI3513
I1
sI3514
I0
sI3515
I0
sI3516
I0
sI3517
I0
sI3518
I1
sI3519
I1
sI3520
I0
sI3521
I0
sI3522
I1
sI3523
I0
sI3524
I0
sI3525
I1
sI3526
I0
sI3527
I0
sI3528
I1
sI3529
I0
sI3530
I0
sI3531
I0
sI3532
I0
sI3533
I0
sI3534
I0
sI3535
I0
sI3536
I0
sI3537
I0
sI3538
I0
sI3539
I1
sI3540
I1
sI3541
I0
sI3542
I0
sI3543
I0
sI3544
I0
sI3545
I0
sI3546
I0
sI3547
I0
sI3548
I0
sI3549
I1
sI3550
I1
sI3551
I0
sI3552
I0
sI3553
I0
sI3554
I1
sI3555
I0
sI3556
I0
sI3557
I0
sI3559
I1
sI3560
I1
sI3561
I0
sI3562
I0
sI3563
I0
sI3564
I0
sI3565
I0
sI3566
I0
sI3567
I1
sI3568
I0
sI3569
I0
sI3570
I0
sI3571
I1
sI3572
I1
sI3573
I1
sI3574
I1
sI3575
I1
sI3576
I1
sI3577
I0
sI3578
I0
sI3579
I0
sI3580
I1
sI3581
I0
sI3582
I1
sI3583
I0
sI3584
I0
sI3585
I0
sI3586
I0
sI3587
I1
sI3588
I0
sI3589
I0
sI3590
I0
sI3591
I0
sI3592
I1
sI3593
I1
sI3594
I0
sI3595
I0
sI3596
I0
sI3597
I0
sI3598
I0
sI3599
I1
sI3600
I0
sI3601
I1
sI3602
I0
sI3603
I0
sI3604
I0
sI3605
I0
sI3606
I1
sI3607
I0
sI3608
I0
sI3609
I1
sI3610
I0
sI3611
I0
sI3612
I0
sI3613
I0
sI3614
I1
sI3615
I0
sI3616
I0
sI3617
I1
sI3618
I0
sI3619
I0
sI3620
I0
sI3621
I0
sI3622
I0
sI3623
I0
sI3624
I1
sI3625
I1
sI3626
I0
sI3627
I1
sI3628
I0
sI3630
I0
sI3631
I0
sI3632
I0
sI3633
I0
sI3634
I0
sI3635
I0
sI3636
I1
sI3637
I1
sI3638
I0
sI3639
I1
sI3640
I0
sI3641
I1
sI3642
I1
sI3643
I0
sI3644
I0
sI3645
I0
sI3646
I1
sI3647
I0
sI3648
I0
sI3649
I0
sI3650
I0
sI3651
I1
sI3652
I0
sI3653
I0
sI3654
I0
sI3655
I0
sI3656
I1
sI3657
I0
sI3658
I0
sI3659
I0
sI3660
I0
sI3661
I0
sI3662
I0
sI3663
I0
sI3664
I0
sI3665
I0
sI3666
I0
sI3667
I0
sI3668
I0
sI3669
I0
sI3670
I0
sI3671
I0
sI3672
I0
sI3673
I0
sI3674
I0
sI3675
I0
sI3676
I0
sI3677
I1
sI3678
I0
sI3679
I0
sI3680
I0
sI3681
I0
sI3682
I0
sI3683
I0
sI3684
I1
sI3685
I0
sI3686
I0
sI3687
I0
sI3688
I0
sI3689
I0
sI3690
I0
sI3691
I0
sI3692
I0
sI3693
I0
sI3694
I1
sI3695
I0
sI3696
I0
sI3697
I1
sI3698
I1
sI3699
I1
sI3700
I0
sI3701
I1
sI3702
I0
sI3703
I0
sI3704
I0
sI3705
I1
sI3706
I0
sI3707
I1
sI3708
I0
sI3709
I1
sI3710
I0
sI3711
I1
sI3712
I0
sI3713
I0
sI3714
I0
sI3715
I0
sI3716
I0
sI3717
I1
sI3718
I0
sI3719
I0
sI3720
I0
sI3721
I0
sI3722
I0
sI3723
I0
sI3724
I0
sI3725
I0
sI3726
I0
sI3727
I0
sI3728
I0
sI3729
I1
sI3730
I0
sI3731
I1
sI3732
I0
sI3733
I1
sI3734
I0
sI3735
I0
sI3736
I0
sI3737
I0
sI3738
I0
sI3739
I0
sI3740
I0
sI3741
I0
sI3742
I0
sI3744
I0
sI3745
I1
sI3746
I0
sI3747
I1
sI3748
I0
sI3749
I0
sI3750
I0
sI3751
I1
sI3752
I1
sI3753
I0
sI3754
I0
sI3755
I0
sI3756
I0
sI3757
I0
sI3758
I0
sI3759
I1
sI3760
I1
sI3761
I0
sI3762
I0
sI3763
I1
sI3764
I0
sI3765
I0
sI3766
I0
sI3767
I0
sI3768
I1
sI3769
I0
sI3770
I0
sI3771
I0
sI3772
I0
sI3773
I1
sI3774
I0
sI3775
I0
sI3776
I0
sI3777
I0
sI3778
I1
sI3779
I0
sI3780
I0
sI3781
I1
sI3782
I0
sI3783
I0
sI3784
I1
sI3785
I0
sI3786
I0
sI3787
I0
sI3788
I1
sI3789
I1
sI3790
I0
sI3791
I1
sI3792
I0
sI3793
I0
sI3794
I0
sI3795
I0
sI3796
I1
sI3797
I0
sI3798
I0
sI3799
I1
sI3800
I1
sI3801
I1
sI3802
I0
sI3803
I0
sI3804
I1
sI3805
I1
sI3806
I0
sI3807
I0
sI3808
I0
sI3809
I0
sI3810
I1
sI3811
I0
sI3813
I1
sI3814
I0
sI3815
I0
sI3816
I1
sI3817
I0
sI3818
I0
sI3819
I1
sI3820
I0
sI3821
I0
sI3822
I0
sI3823
I0
sI3824
I0
sI3825
I0
sI3826
I0
sI3827
I0
sI3828
I0
sI3829
I1
sI3830
I0
sI3831
I0
sI3832
I0
sI3833
I0
sI3834
I0
sI3835
I0
sI3836
I0
sI3837
I0
sI3838
I0
sI3839
I1
sI3840
I1
sI3841
I0
sI3842
I0
sI3843
I1
sI3844
I1
sI3845
I1
sI3846
I1
sI3847
I0
sI3848
I0
sI3849
I0
sI3850
I0
sI3851
I0
sI3852
I0
sI3853
I0
sI3854
I0
sI3855
I0
sI3856
I0
sI3857
I1
sI3858
I0
sI3859
I1
sI3860
I0
sI3861
I0
sI3862
I1
sI3863
I0
sI3864
I0
sI3865
I0
sI3866
I1
sI3867
I0
sI3868
I1
sI3869
I0
sI3870
I0
sI3871
I0
sI3872
I1
sI3873
I0
sI3874
I0
sI3875
I0
sI3876
I0
sI3877
I0
sI3878
I1
sI3879
I0
sI3880
I0
sI3881
I0
sI3882
I0
sI3883
I1
sI3884
I0
sI3885
I0
sI3886
I1
sI3887
I0
sI3889
I1
sI3890
I0
sI3891
I0
sI3892
I1
sI3893
I1
sI3894
I1
sI3895
I0
sI3896
I1
sI3897
I1
sI3898
I0
sI3899
I0
sI3900
I0
sI3901
I0
sI3902
I0
sI3903
I1
sI3904
I0
sI3905
I0
sI3906
I0
sI3907
I0
sI3908
I0
sI3909
I0
sI3910
I0
sI3911
I1
sI3912
I0
sI3913
I0
sI3914
I0
sI3915
I0
sI3916
I0
sI3917
I0
sI3918
I0
sI3919
I1
sI3920
I0
sI3921
I1
sI3922
I0
sI3923
I0
sI3924
I0
sI3925
I1
sI3926
I1
sI3927
I0
sI3928
I0
sI3929
I0
sI3930
I0
sI3931
I0
sI3932
I1
sI3933
I0
sI3934
I0
sI3935
I0
sI3936
I0
sI3937
I0
sI3938
I0
sI3939
I0
sI3940
I1
sI3941
I0
sI3942
I0
sI3943
I0
sI3944
I0
sI3945
I0
sI3946
I0
sI3947
I0
sI3948
I0
sI3949
I0
sI3950
I0
sI3951
I1
sI3952
I0
sI3953
I1
sI3954
I0
sI3955
I1
sI3956
I0
sI3957
I0
sI3958
I1
sI3959
I1
sI3960
I0
sI3961
I0
sI3962
I0
sI3963
I0
sI3964
I1
sI3965
I0
sI3966
I1
sI3967
I0
sI3968
I0
sI3969
I0
sI3970
I0
sI3971
I0
sI3972
I0
sI3973
I0
sI3974
I0
sI3975
I1
sI3976
I1
sI3977
I0
sI3978
I1
sI3979
I0
sI3980
I0
sI3981
I0
sI3982
I0
sI3983
I0
sI3984
I0
sI3985
I0
sI3986
I0
sI3987
I0
sI3988
I0
sI3989
I0
sI3990
I0
sI3991
I0
sI3992
I1
sI3993
I1
sI3994
I0
sI3995
I0
sI3996
I0
sI3997
I0
sI3998
I0
sI3999
I0
sI4000
I0
sI4001
I0
sI4002
I0
sI4003
I0
sI4004
I0
sI4005
I1
sI4006
I0
sI4007
I0
sI4008
I0
sI4009
I0
sI4010
I0
sI4011
I1
sI4012
I0
sI4013
I0
sI4014
I0
sI4015
I0
sI4016
I1
sI4017
I1
sI4018
I0
sI4019
I0
sI4020
I0
sI4021
I0
sI4022
I0
sI4023
I0
sI4024
I1
sI4025
I0
sI4026
I0
sI4027
I1
sI4028
I0
sI4029
I0
sI4030
I0
sI4031
I0
sI4032
I1
sI4033
I0
sI4034
I0
sI4035
I0
sI4037
I1
sI4038
I1
sI4039
I0
sI4040
I0
sI4041
I0
sI4042
I0
sI4043
I1
sI4044
I1
sI4045
I0
sI4046
I1
sI4047
I1
sI4048
I1
sI4049
I0
sI4050
I1
sI4051
I0
sI4052
I0
sI4053
I0
sI4054
I0
sI4055
I0
sI4056
I0
sI4057
I0
sI4058
I0
sI4059
I0
sI4060
I0
sI4061
I1
sI4062
I0
sI4063
I0
sI4064
I0
sI4065
I0
sI4066
I1
sI4067
I0
sI4068
I0
sI4070
I1
sI4071
I0
sI4072
I0
sI4073
I0
sI4074
I0
sI4075
I0
sI4076
I1
sI4077
I0
sI4078
I0
sI4079
I0
sI4080
I0
sI4081
I0
sI4082
I1
sI4083
I0
sI4084
I1
sI4085
I1
sI4086
I0
sI4087
I1
sI4088
I0
sI4089
I0
sI4090
I1
sI4091
I0
sI4092
I1
sI4093
I1
sI4094
I0
sI4095
I0
sI4096
I0
sI4097
I0
sI4098
I0
sI4099
I0
sI4100
I0
sI4101
I0
sI4102
I0
sI4103
I0
sI4104
I1
sI4105
I0
sI4106
I0
sI4107
I1
sI4108
I1
sI4109
I0
sI4110
I1
sI4111
I1
sI4112
I0
sI4113
I0
sI4114
I0
sI4115
I0
sI4116
I0
sI4117
I0
sI4118
I0
sI4119
I0
sI4120
I1
sI4121
I1
sI4122
I1
sI4123
I0
sI4124
I0
sI4125
I0
sI4126
I0
sI4127
I0
sI4128
I0
sI4129
I0
sI4130
I1
sI4131
I1
sI4132
I0
sI4133
I0
sI4134
I0
sI4135
I1
sI4137
I0
sI4138
I1
sI4139
I0
sI4140
I0
sI4141
I1
sI4142
I1
sI4143
I0
sI4144
I0
sI4145
I0
sI4146
I1
sI4147
I0
sI4148
I0
sI4149
I0
sI4150
I0
sI4151
I1
sI4152
I0
sI4153
I0
sI4154
I0
sI4155
I0
sI4156
I0
sI4157
I0
sI4158
I1
sI4159
I1
sI4160
I0
sI4161
I0
sI4162
I1
sI4163
I0
sI4164
I1
sI4165
I0
sI4166
I0
sI4167
I0
sI4168
I0
sI4169
I0
sI4170
I1
sI4171
I0
sI4172
I0
sI4173
I0
sI4174
I0
sI4175
I0
sI4176
I0
sI4177
I0
sI4178
I0
sI4179
I0
sI4180
I0
sI4182
I0
sI4183
I0
sI4184
I0
sI4185
I0
sI4186
I1
sI4187
I1
sI4188
I1
sI4189
I0
sI4190
I0
sI4191
I0
sI4192
I0
sI4193
I0
sI4194
I0
sI4195
I1
sI4196
I1
sI4197
I0
sI4198
I0
sI4199
I1
sI4200
I0
sI4201
I0
sI4202
I0
sI4203
I0
sI4204
I0
sI4205
I0
sI4206
I0
sI4207
I0
sI4208
I0
sI4209
I0
sI4210
I1
sI4211
I0
sI4212
I0
sI4213
I0
sI4214
I0
sI4215
I0
sI4216
I1
sI4217
I0
sI4218
I1
sI4219
I0
sI4220
I1
sI4221
I0
sI4222
I1
sI4223
I0
sI4224
I1
sI4225
I0
sI4226
I0
sI4227
I0
sI4228
I0
sI4229
I1
sI4230
I0
sI4231
I0
sI4232
I0
sI4233
I0
sI4234
I0
sI4235
I0
sI4236
I0
sI4237
I0
sI4238
I0
sI4239
I0
sI4240
I0
sI4241
I0
sI4242
I0
sI4243
I0
sI4244
I0
sI4245
I0
sI4246
I0
sI4247
I1
sI4248
I0
sI4249
I0
sI4250
I1
sI4251
I0
sI4252
I0
sI4253
I1
sI4254
I1
sI4255
I1
sI4256
I0
sI4257
I0
sI4258
I0
sI4259
I0
sI4260
I0
sI4261
I0
sI4262
I0
sI4263
I0
sI4264
I1
sI4265
I0
sI4266
I0
sI4267
I0
sI4268
I1
sI4269
I0
sI4270
I1
sI4271
I0
sI4272
I0
sI4273
I0
sI4274
I1
sI4275
I0
sI4276
I0
sI4277
I0
sI4278
I0
sI4279
I0
sI4280
I0
sI4281
I1
sI4282
I1
sI4283
I0
sI4284
I0
sI4285
I0
sI4286
I0
sI4287
I1
sI4288
I0
sI4289
I0
sI4290
I0
sI4291
I0
sI4292
I0
sI4293
I0
sI4294
I0
sI4295
I0
sI4296
I1
sI4297
I0
sI4298
I0
sI4299
I0
sI4300
I1
sI4301
I0
sI4302
I0
sI4303
I0
sI4304
I0
sI4305
I0
sI4306
I0
sI4307
I0
sI4308
I0
sI4309
I0
sI4310
I0
sI4311
I0
sI4312
I1
sI4313
I1
sI4314
I1
sI4315
I1
sI4316
I1
sI4317
I0
sI4318
I1
sI4319
I0
sI4320
I0
sI4321
I1
sI4323
I0
sI4324
I0
sI4325
I1
sI4326
I1
sI4327
I1
sI4328
I0
sI4329
I0
sI4330
I0
sI4331
I0
sI4332
I0
sI4333
I1
sI4334
I0
sI4335
I1
sI4336
I0
sI4337
I0
sI4338
I0
sI4339
I1
sI4340
I0
sI4341
I0
sI4342
I0
sI4343
I0
sI4344
I0
sI4345
I0
sI4346
I0
sI4347
I0
sI4348
I0
sI4349
I0
sI4350
I1
sI4351
I0
sI4352
I0
sI4353
I0
sI4354
I1
sI4355
I1
sI4356
I1
sI4357
I0
sI4358
I0
sI4359
I0
sI4360
I0
sI4361
I0
sI4362
I0
sI4363
I1
sI4364
I1
sI4365
I0
sI4366
I0
sI4367
I1
sI4368
I0
sI4369
I0
sI4370
I0
sI4371
I0
sI4372
I0
sI4373
I0
sI4374
I0
sI4375
I0
sI4376
I0
sI4377
I0
sI4378
I0
sI4379
I0
sI4380
I0
sI4381
I0
sI4382
I0
sI4383
I0
sI4384
I0
sI4385
I0
sI4386
I0
sI4387
I0
sI4388
I0
sI4389
I1
sI4390
I1
sI4391
I0
sI4393
I0
sI4394
I1
sI4395
I0
sI4396
I0
sI4397
I0
sI4398
I1
sI4399
I0
sI4400
I1
sI4401
I0
sI4402
I1
sI4403
I1
sI4404
I0
sI4405
I0
sI4406
I0
sI4407
I0
sI4408
I0
sI4409
I1
sI4410
I0
sI4411
I0
sI4412
I1
sI4413
I1
sI4414
I0
sI4415
I1
sI4416
I1
sI4417
I1
sI4418
I0
sI4419
I0
sI4420
I0
sI4421
I0
sI4422
I0
sI4423
I1
sI4424
I0
sI4425
I1
sI4426
I0
sI4427
I0
sI4428
I0
sI4429
I0
sI4430
I1
sI4431
I0
sI4432
I1
sI4433
I0
sI4434
I1
sI4435
I1
sI4436
I1
sI4437
I0
sI4438
I0
sI4439
I1
sI4440
I0
sI4441
I0
sI4442
I0
sI4443
I0
sI4444
I0
sI4445
I0
sI4446
I0
sI4447
I0
sI4448
I0
sI4449
I0
sI4450
I0
sI4451
I0
sI4452
I0
sI4453
I1
sI4454
I0
sI4455
I0
sI4456
I0
sI4457
I0
sI4458
I0
sI4459
I0
sI4460
I1
sI4461
I0
sI4462
I0
sI4463
I1
sI4464
I0
sI4465
I0
sI4466
I1
sI4467
I0
sI4468
I1
sI4469
I1
sI4470
I0
sI4472
I1
sI4473
I0
sI4474
I0
sI4475
I1
sI4476
I0
sI4477
I1
sI4478
I1
sI4479
I1
sI4480
I0
sI4481
I1
sI4482
I0
sI4483
I0
sI4484
I0
sI4485
I0
sI4486
I0
sI4487
I0
sI4488
I0
sI4489
I0
sI4490
I0
sI4491
I0
sI4492
I0
sI4493
I0
sI4494
I0
sI4495
I0
sI4496
I0
sI4497
I0
sI4498
I0
sI4499
I1
sI4500
I0
sI4501
I0
sI4502
I1
sI4503
I0
sI4504
I0
sI4505
I0
sI4506
I0
sI4507
I1
sI4508
I0
sI4509
I0
sI4510
I0
sI4511
I1
sI4512
I1
sI4513
I1
sI4514
I0
sI4515
I0
sI4516
I0
sI4517
I0
sI4518
I0
sI4519
I0
sI4520
I0
sI4521
I1
sI4522
I1
sI4523
I0
sI4524
I0
sI4525
I0
sI4526
I0
sI4527
I1
sI4528
I0
sI4529
I0
sI4530
I0
sI4531
I0
sI4532
I1
sI4533
I0
sI4534
I0
sI4535
I0
sI4536
I1
sI4537
I0
sI4538
I1
sI4539
I1
sI4540
I0
sI4541
I0
sI4542
I0
sI4543
I1
sI4544
I1
sI4545
I0
sI4546
I0
sI4547
I0
sI4548
I0
sI4549
I1
sI4550
I0
sI4551
I1
sI4552
I1
sI4553
I0
sI4554
I1
sI4555
I0
sI4556
I0
sI4557
I1
sI4558
I0
sI4559
I0
sI4560
I0
sI4561
I0
sI4562
I0
sI4563
I0
sI4564
I0
sI4565
I0
sI4566
I0
sI4567
I0
sI4568
I0
sI4569
I0
sI4570
I0
sI4571
I0
sI4572
I1
sI4573
I0
sI4574
I0
sI4575
I0
sI4576
I1
sI4577
I0
sI4578
I1
sI4579
I0
sI4580
I1
sI4582
I1
sI4583
I0
sI4584
I0
sI4585
I0
sI4586
I1
sI4587
I0
sI4588
I0
sI4589
I0
sI4590
I0
sI4591
I1
sI4592
I0
sI4593
I1
sI4594
I0
sI4595
I0
sI4596
I0
sI4597
I0
sI4598
I0
sI4599
I1
sI4600
I0
sI4601
I1
sI4602
I0
sI4603
I0
sI4604
I0
sI4605
I0
sI4606
I1
sI4607
I0
sI4608
I0
sI4609
I0
sI4610
I0
sI4611
I0
sI4612
I0
sI4613
I0
sI4614
I0
sI4615
I0
sI4616
I0
sI4617
I0
sI4618
I0
sI4619
I0
sI4620
I0
sI4621
I0
sI4622
I0
sI4623
I0
sI4624
I0
sI4625
I0
sI4626
I0
sI4627
I0
sI4628
I0
sI4629
I0
sI4630
I1
sI4631
I0
sI4632
I0
sI4633
I0
sI4634
I1
sI4635
I1
sI4636
I0
sI4637
I1
sI4638
I0
sI4639
I0
sI4640
I0
sI4641
I0
sI4642
I0
sI4643
I0
sI4644
I1
sI4645
I1
sI4646
I0
sI4648
I0
sI4649
I0
sI4650
I0
sI4651
I0
sI4652
I1
sI4653
I0
sI4654
I0
sI4655
I1
sI4656
I1
sI4657
I0
sI4658
I1
sI4659
I0
sI4660
I1
sI4661
I0
sI4662
I0
sI4663
I0
sI4664
I0
sI4665
I0
sI4666
I0
sI4667
I0
sI4668
I0
sI4669
I0
sI4670
I0
sI4671
I0
sI4672
I0
sI4673
I0
sI4674
I0
sI4675
I0
sI4676
I0
sI4677
I0
sI4678
I0
sI4679
I1
sI4680
I0
sI4681
I0
sI4682
I1
sI4683
I0
sI4684
I0
sI4685
I0
sI4686
I0
sI4687
I0
sI4688
I0
sI4689
I0
sI4690
I0
sI4691
I0
sI4692
I1
sI4693
I0
sI4694
I0
sI4695
I1
sI4696
I0
sI4697
I0
sI4698
I0
sI4699
I0
sI4700
I0
sI4701
I0
sI4702
I0
sI4703
I0
sI4704
I1
sI4705
I1
sI4706
I1
sI4707
I1
sI4708
I0
sI4709
I0
sI4710
I0
sI4711
I0
sI4712
I0
sI4713
I0
sI4714
I0
sI4715
I1
sI4716
I0
sI4717
I0
sI4718
I0
sI4719
I0
sI4720
I0
sI4721
I0
sI4722
I0
sI4723
I0
sI4724
I0
sI4725
I0
sI4726
I0
sI4727
I0
sI4728
I0
sI4729
I0
sI4730
I1
sI4731
I0
sI4732
I1
sI4733
I0
sI4734
I0
sI4735
I0
sI4736
I0
sI4737
I0
sI4738
I0
sI4739
I0
sI4740
I1
sI4741
I0
sI4742
I0
sI4743
I0
sI4744
I0
sI4745
I0
sI4746
I1
sI4747
I0
sI4748
I1
sI4749
I0
sI4750
I0
sI4751
I0
sI4752
I0
sI4753
I1
sI4754
I1
sI4755
I0
sI4756
I0
sI4757
I1
sI4758
I0
sI4759
I1
sI4760
I0
sI4761
I0
sI4762
I0
sI4763
I1
sI4764
I1
sI4765
I0
sI4766
I0
sI4767
I0
sI4768
I0
sI4769
I0
sI4770
I1
sI4771
I0
sI4772
I0
sI4773
I0
sI4774
I0
sI4775
I0
sI4776
I1
sI4777
I1
sI4778
I0
sI4779
I1
sI4780
I1
sI4781
I0
sI4782
I1
sI4783
I0
sI4784
I0
sI4785
I1
sI4786
I0
sI4787
I0
sI4788
I0
sI4789
I0
sI4790
I0
sI4791
I1
sI4792
I0
sI4793
I1
sI4794
I0
sI4795
I0
sI4796
I0
sI4797
I1
sI4798
I0
sI4799
I0
sI4800
I0
sI4801
I0
sI4802
I0
sI4803
I1
sI4804
I0
sI4805
I0
sI4806
I0
sI4807
I1
sI4808
I1
sI4809
I0
sI4810
I1
sI4811
I0
sI4812
I0
sI4813
I0
sI4814
I0
sI4815
I0
sI4816
I0
sI4817
I0
sI4818
I0
sI4819
I0
sI4820
I0
sI4821
I1
sI4822
I0
sI4823
I0
sI4824
I0
sI4825
I0
sI4826
I0
sI4827
I1
sI4828
I0
sI4829
I0
sI4830
I0
sI4831
I1
sI4832
I0
sI4833
I1
sI4834
I1
sI4836
I0
sI4837
I1
sI4838
I0
sI4839
I0
sI4840
I0
sI4841
I0
sI4842
I1
sI4843
I1
sI4844
I0
sI4845
I0
sI4846
I0
sI4847
I1
sI4848
I0
sI4849
I0
sI4850
I1
sI4851
I0
sI4852
I0
sI4853
I0
sI4854
I0
sI4855
I1
sI4856
I0
sI4857
I0
sI4858
I0
sI4859
I0
sI4860
I0
sI4861
I1
sI4862
I0
sI4863
I0
sI4864
I0
sI4865
I0
sI4866
I1
sI4867
I1
sI4868
I0
sI4869
I0
sI4870
I0
sI4871
I0
sI4872
I1
sI4873
I1
sI4874
I0
sI4875
I1
sI4876
I1
sI4877
I0
sI4878
I0
sI4879
I0
sI4880
I0
sI4881
I0
sI4882
I0
sI4883
I1
sI4884
I0
sI4885
I0
sI4886
I0
sI4887
I0
sI4888
I0
sI4889
I0
sI4890
I0
sI4891
I0
sI4892
I0
sI4893
I0
sI4894
I1
sI4895
I1
sI4896
I0
sI4897
I0
sI4898
I0
sI4899
I0
sI4900
I1
sI4901
I1
sI4902
I0
sI4904
I0
sI4905
I1
sI4906
I1
sI4907
I0
sI4908
I0
sI4909
I0
sI4910
I0
sI4911
I0
sI4912
I0
sI4913
I1
sI4914
I1
sI4915
I0
sI4916
I0
sI4917
I0
sI4918
I1
sI4919
I0
sI4920
I0
sI4921
I0
sI4922
I1
sI4923
I0
sI4924
I0
sI4925
I0
sI4926
I0
sI4927
I0
sI4928
I0
sI4929
I0
sI4930
I1
sI4931
I0
sI4932
I0
sI4933
I1
sI4934
I0
sI4935
I1
sI4936
I0
sI4937
I0
sI4938
I0
sI4939
I0
sI4940
I0
sI4941
I0
sI4942
I0
sI4943
I0
sI4944
I0
sI4945
I0
sI4946
I0
sI4947
I0
sI4948
I1
sI4949
I1
sI4950
I1
sI4951
I0
sI4952
I0
sI4953
I0
sI4954
I0
sI4955
I1
sI4956
I0
sI4957
I0
sI4958
I0
sI4959
I0
sI4960
I1
sI4961
I1
sI4962
I0
sI4963
I0
sI4964
I0
sI4965
I0
sI4966
I1
sI4967
I0
sI4968
I0
sI4969
I0
sI4970
I0
sI4971
I0
sI4972
I0
sI4973
I0
sI4974
I0
sI4975
I0
sI4976
I0
sI4977
I0
sI4978
I0
sI4979
I0
sI4980
I0
sI4981
I1
sI4982
I0
sI4983
I0
sI4984
I0
sI4985
I1
sI4986
I1
sI4987
I0
sI4988
I0
sI4989
I0
sI4990
I0
sI4991
I0
sI4992
I0
sI4993
I0
sI4994
I0
sI4995
I0
sI4996
I0
sI4997
I0
sI4998
I0
sI4999
I0
sI5000
I0
sI5001
I0
sI5002
I0
sI5003
I0
sI5004
I1
sI5005
I0
sI5006
I0
sI5007
I0
sI5008
I1
sI5009
I0
sI5010
I0
sI5011
I0
sI5012
I0
sI5013
I0
sI5014
I0
sI5015
I0
sI5016
I0
sI5017
I0
sI5018
I0
sI5019
I0
sI5020
I1
sI5021
I1
sI5022
I0
sI5023
I0
sI5024
I0
sI5025
I0
sI5026
I0
sI5027
I0
sI5028
I0
sI5029
I1
sI5030
I1
sI5031
I0
sI5032
I0
sI5033
I0
sI5034
I0
sI5035
I0
sI5036
I0
sI5037
I1
sI5038
I1
sI5039
I0
sI5040
I0
sI5041
I1
sI5042
I0
sI5043
I0
sI5044
I0
sI5045
I0
sI5046
I0
sI5047
I0
sI5048
I0
sI5049
I1
sI5050
I0
sI5051
I0
sI5052
I0
sI5053
I0
sI5054
I1
sI5055
I0
sI5056
I0
sI5057
I0
sI5058
I0
sI5059
I0
sI5060
I0
sI5061
I0
sI5062
I0
sI5063
I0
sI5064
I1
sI5065
I0
sI5066
I0
sI5067
I0
sI5068
I0
sI5069
I0
sI5070
I0
sI5071
I0
sI5072
I0
sI5073
I0
sI5074
I0
sI5075
I0
sI5076
I0
sI5077
I0
sI5078
I0
sI5079
I0
sI5080
I1
sI5082
I0
sI5083
I1
sI5084
I0
sI5085
I1
sI5086
I0
sI5087
I0
sI5088
I0
sI5089
I0
sI5090
I0
sI5091
I0
sI5092
I0
sI5093
I0
sI5094
I0
sI5095
I0
sI5096
I0
sI5097
I0
sI5098
I0
sI5099
I1
sI5100
I1
sI5101
I1
sI5102
I1
sI5103
I0
sI5104
I1
sI5105
I1
sI5106
I0
sI5107
I0
sI5108
I0
sI5109
I0
sI5110
I1
sI5111
I0
sI5112
I0
sI5113
I0
sI5114
I1
sI5115
I0
sI5116
I0
sI5117
I0
sI5118
I0
sI5119
I0
sI5120
I0
sI5121
I0
sI5122
I0
sI5123
I1
sI5124
I0
sI5125
I0
sI5126
I0
sI5127
I0
sI5128
I0
sI5129
I1
sI5130
I0
sI5131
I0
sI5132
I1
sI5133
I0
sI5134
I1
sI5135
I1
sI5136
I0
sI5137
I0
sI5138
I0
sI5139
I0
sI5140
I1
sI5141
I0
sI5142
I0
sI5143
I0
sI5144
I0
sI5145
I0
sI5146
I0
sI5147
I0
sI5148
I0
sI5149
I0
sI5151
I0
sI5152
I0
sI5153
I0
sI5154
I0
sI5155
I0
sI5156
I1
sI5157
I0
sI5158
I0
sI5159
I0
sI5160
I0
sI5161
I0
sI5162
I0
sI5163
I0
sI5164
I0
sI5165
I1
sI5166
I1
sI5167
I0
sI5168
I0
sI5169
I0
sI5170
I0
sI5171
I0
sI5172
I0
sI5173
I0
sI5174
I0
sI5175
I1
sI5176
I0
sI5177
I1
sI5178
I0
sI5179
I1
sI5180
I0
sI5181
I0
sI5182
I0
s.